
fact.elf:     file format elf32-littlearm
fact.elf
architecture: arm, flags 0x00000112:
EXEC_P, HAS_SYMS, D_PAGED
start address 0x82000000

Program Header:
    LOAD off    0x00010000 vaddr 0x82000000 paddr 0x82000000 align 2**16
         filesz 0x00000f7c memsz 0x00000f7c flags r-x
private flags = 5000202: [Version5 EABI] [soft-float ABI] [has entry point]

Sections:
Idx Name          Size      VMA       LMA       File off  Algn
  0 .text         00000f60  82000000  82000000  00010000  2**2
                  CONTENTS, ALLOC, LOAD, READONLY, CODE
  1 .rodata       0000001c  82000f60  82000f60  00010f60  2**2
                  CONTENTS, ALLOC, LOAD, READONLY, DATA
  2 .ARM.attributes 00000039  00000000  00000000  00010f7c  2**0
                  CONTENTS, READONLY
  3 .comment      0000003c  00000000  00000000  00010fb5  2**0
                  CONTENTS, READONLY
  4 .debug_line   0000048d  00000000  00000000  00010ff1  2**0
                  CONTENTS, READONLY, DEBUGGING
  5 .debug_info   00000905  00000000  00000000  0001147e  2**0
                  CONTENTS, READONLY, DEBUGGING
  6 .debug_abbrev 000002d6  00000000  00000000  00011d83  2**0
                  CONTENTS, READONLY, DEBUGGING
  7 .debug_aranges 000000e0  00000000  00000000  00012060  2**3
                  CONTENTS, READONLY, DEBUGGING
  8 .debug_str    000001cc  00000000  00000000  00012140  2**0
                  CONTENTS, READONLY, DEBUGGING
  9 .debug_frame  000002a4  00000000  00000000  0001230c  2**2
                  CONTENTS, READONLY, DEBUGGING
SYMBOL TABLE:
82000000 l    d  .text	00000000 .text
82000f60 l    d  .rodata	00000000 .rodata
00000000 l    d  .ARM.attributes	00000000 .ARM.attributes
00000000 l    d  .comment	00000000 .comment
00000000 l    d  .debug_line	00000000 .debug_line
00000000 l    d  .debug_info	00000000 .debug_info
00000000 l    d  .debug_abbrev	00000000 .debug_abbrev
00000000 l    d  .debug_aranges	00000000 .debug_aranges
00000000 l    d  .debug_str	00000000 .debug_str
00000000 l    d  .debug_frame	00000000 .debug_frame
00000000 l    df *ABS*	00000000 start.o
82000054 l       .text	00000000 _saved_sp
82000058 l       .text	00000000 _svc_stack
00000000 l    df *ABS*	00000000 fact.c
82000f60 l       .rodata	00000000 .LC0
00000000 l    df *ABS*	00000000 fact-arm.o
820000f0 l       .text	00000000 exit
00000000 l    df *ABS*	00000000 uart.c
82000f68 l       .rodata	00000000 .LC0
82000f70 l       .rodata	00000000 .LC1
00000000 l    df *ABS*	00000000 print.c
82000f74 l       .rodata	00000000 .LC0
00000000 l    df *ABS*	00000000 _udivsi3.o
82000d50 l       .text	00000000 .udivsi3_skip_div0_test
00000000 l       *ABS*	00000000 shift
00000000 l    df *ABS*	00000000 _dvmd_tls.o
00000000 l    df *ABS*	00000000 
8200014c g     F .text	0000005c UART_getc_noblock
82000a60 g     F .text	000002dc print
82000d50 g     F .text	000001ec .hidden __udivsi3
820003b4 g     F .text	0000004c UART_puts
8200004c g       .text	00000000 _bss_start
820008e0 g     F .text	00000180 printi
82000050 g       .text	00000000 _bss_end
820001a8 g     F .text	000000f8 UART_gethex
82000000 g       .text	00000000 _start
820007a8 g     F .text	00000138 prints
820000f8 g     F .text	00000054 UART_getc
820002a0 g     F .text	00000070 UART_gets
82000f5c  w    F .text	00000004 .hidden __aeabi_ldiv0
82000f7c g       .rodata	00000000 __bss_start
8200005c g     F .text	00000070 main
82000d50 g     F .text	00000000 .hidden __aeabi_uidiv
820006d8 g     F .text	00000040 UART_sprintf
8200074c g     F .text	0000005c printchar
82000310 g     F .text	000000a4 UART_putc
82000718 g     F .text	00000034 UART_printf
82000f3c g     F .text	00000020 .hidden __aeabi_uidivmod
82000f7c g       .rodata	00000000 _end
82000418 g     F .text	000002c0 UART_goto
820000cc g       .text	00000000 fact
82000f5c  w    F .text	00000004 .hidden __aeabi_idiv0
82000400 g     F .text	00000018 UART_clear
82000d3c g     F .text	00000014 raise



Disassembly of section .text:

82000000 <_start>:
# File: start.S
# ======================================================================

.globl _start
_start:
	mov	r4, #0			// r4=0
82000000:	e3a04000 	mov	r4, #0
	mcr	p15, #0, r4, c7, c5, #0	// invalidate i-cache
82000004:	ee074f15 	mcr	15, 0, r4, cr7, cr5, {0}
	dsb				// data synchronization barrier
82000008:	f57ff04f 	dsb	sy
	mcr	p15, #0, r4, c7, c5, #4	// flush prefetch buffer
8200000c:	ee074f95 	mcr	15, 0, r4, cr7, cr5, {4}

	push	{lr}			// save lr
82000010:	e52de004 	push	{lr}		; (str lr, [sp, #-4]!)
	str	sp, _saved_sp		// save u-boot sp
82000014:	e58fd038 	str	sp, [pc, #56]	; 82000054 <_saved_sp>
	ldr	sp, _svc_stack		// set svc stack
82000018:	e59fd038 	ldr	sp, [pc, #56]	; 82000058 <_svc_stack>

	ldr	r4, _bss_start		// r4=bss_start
8200001c:	e59f4028 	ldr	r4, [pc, #40]	; 8200004c <_bss_start>
	ldr	r5, _bss_end		// r5=bss_end
82000020:	e59f5028 	ldr	r5, [pc, #40]	; 82000050 <_bss_end>
	cmp	r4, r5			// if r4==r5
82000024:	e1540005 	cmp	r4, r5
	beq	.L1 			// then goto .L1
82000028:	0a000004 	beq	82000040 <_start+0x40>
	mov	r6, #0			// r6=0
8200002c:	e3a06000 	mov	r6, #0
.L0:
	str	r6, [r4]		// *r4=r6
82000030:	e5846000 	str	r6, [r4]
	add	r4, r4, #4		// r4=r4+4
82000034:	e2844004 	add	r4, r4, #4
	cmp	r4, r5			// if r4!=r5
82000038:	e1540005 	cmp	r4, r5
	bne	.L0			// then goto .L0
8200003c:	1afffffb 	bne	82000030 <_start+0x30>
.L1:
	bl	main			// main(argc, argv);
82000040:	eb000005 	bl	8200005c <main>

	ldr	sp, _saved_sp		// restore u-boot sp
82000044:	e59fd008 	ldr	sp, [pc, #8]	; 82000054 <_saved_sp>
	pop	{pc}			// restore pc
82000048:	e49df004 	pop	{pc}		; (ldr pc, [sp], #4)

8200004c <_bss_start>:
8200004c:	82000f7c 	andhi	r0, r0, #124, 30	; 0x1f0

82000050 <_bss_end>:
82000050:	82000f7c 	andhi	r0, r0, #124, 30	; 0x1f0

82000054 <_saved_sp>:
82000054:	00000000 	andeq	r0, r0, r0

82000058 <_svc_stack>:
82000058:	82000000 	andhi	r0, r0, #0

8200005c <main>:
extern unsigned int fact(unsigned int n);

// ======================================================================

int main(int argc, char *argv[])
{
8200005c:	e92d4800 	push	{fp, lr}
82000060:	e28db004 	add	fp, sp, #4
82000064:	e24dd010 	sub	sp, sp, #16
82000068:	e50b0010 	str	r0, [fp, #-16]
8200006c:	e50b1014 	str	r1, [fp, #-20]
  int n, f;

  for (n = 0; n <= 9; n++) {
82000070:	e3a03000 	mov	r3, #0
82000074:	e50b3008 	str	r3, [fp, #-8]
82000078:	ea00000c 	b	820000b0 <main+0x54>
    f = fact(n);
8200007c:	e51b3008 	ldr	r3, [fp, #-8]
82000080:	e1a00003 	mov	r0, r3
82000084:	eb000010 	bl	820000cc <fact>
82000088:	e1a03000 	mov	r3, r0
8200008c:	e50b300c 	str	r3, [fp, #-12]
    UART_printf("%d!=%d\n", n, f);
82000090:	e51b200c 	ldr	r2, [fp, #-12]
82000094:	e51b1008 	ldr	r1, [fp, #-8]
82000098:	e3000f60 	movw	r0, #3936	; 0xf60
8200009c:	e3480200 	movt	r0, #33280	; 0x8200
820000a0:	eb00019c 	bl	82000718 <UART_printf>

int main(int argc, char *argv[])
{
  int n, f;

  for (n = 0; n <= 9; n++) {
820000a4:	e51b3008 	ldr	r3, [fp, #-8]
820000a8:	e2833001 	add	r3, r3, #1
820000ac:	e50b3008 	str	r3, [fp, #-8]
820000b0:	e51b3008 	ldr	r3, [fp, #-8]
820000b4:	e3530009 	cmp	r3, #9
820000b8:	daffffef 	ble	8200007c <main+0x20>
    f = fact(n);
    UART_printf("%d!=%d\n", n, f);
  }

  return 0;
820000bc:	e3a03000 	mov	r3, #0
}
820000c0:	e1a00003 	mov	r0, r3
820000c4:	e24bd004 	sub	sp, fp, #4
820000c8:	e8bd8800 	pop	{fp, pc}

820000cc <fact>:
#	Base case : 1
#	Induction step : n * fact(n - 1)

.globl fact
fact:
	cmp	r0, #1		@ if (n <= 1)
820000cc:	e3500001 	cmp	r0, #1
	ble	exit		@ n = 1
820000d0:	da000006 	ble	820000f0 <exit>
	push	{lr}		@ 스택에 복귀주소 push
820000d4:	e52de004 	push	{lr}		; (str lr, [sp, #-4]!)
	push	{r0}		@ 스택에 n값 push (이유는 r0값이 바껴서)
820000d8:	e52d0004 	push	{r0}		; (str r0, [sp, #-4]!)
	sub	r0, #1		@ n = n - 1
820000dc:	e2400001 	sub	r0, r0, #1
	bl	fact		@ fact (n - 1) 호출
820000e0:	ebfffff9 	bl	820000cc <fact>
	pop	{r4}		@ 곱할 값을 r4에 pop
820000e4:	e49d4004 	pop	{r4}		; (ldr r4, [sp], #4)
	mul	r0, r4		@ 1(n=0) * 1(n=1) * 2(n=2) * ... * n
820000e8:	e0000094 	mul	r0, r4, r0
	pop	{pc}		@ fact(n + 1) 복귀 주소 pop
820000ec:	e49df004 	pop	{pc}		; (ldr pc, [sp], #4)

820000f0 <exit>:
				@ 마지막은 main함수 복귀 주소 pop
exit:
	mov	r0, #1		@ n이 1이하일 땐 1값을 넣음
820000f0:	e3a00001 	mov	r0, #1
	mov	pc, lr		@ pc에 fact(2) 복귀주소를 넣음
820000f4:	e1a0f00e 	mov	pc, lr

820000f8 <UART_getc>:
820000f8:	e92d4800 	push	{fp, lr}
820000fc:	e28db004 	add	fp, sp, #4
82000100:	e24dd008 	sub	sp, sp, #8
82000104:	e1a00000 	nop			; (mov r0, r0)
82000108:	e3093014 	movw	r3, #36884	; 0x9014
8200010c:	e34434e0 	movt	r3, #17632	; 0x44e0
82000110:	e5933000 	ldr	r3, [r3]
82000114:	e2033001 	and	r3, r3, #1
82000118:	e3530000 	cmp	r3, #0
8200011c:	0afffff9 	beq	82000108 <UART_getc+0x10>
82000120:	e3a03a09 	mov	r3, #36864	; 0x9000
82000124:	e34434e0 	movt	r3, #17632	; 0x44e0
82000128:	e5933000 	ldr	r3, [r3]
8200012c:	e50b3008 	str	r3, [fp, #-8]
82000130:	e51b3008 	ldr	r3, [fp, #-8]
82000134:	e1a00003 	mov	r0, r3
82000138:	eb000074 	bl	82000310 <UART_putc>
8200013c:	e51b3008 	ldr	r3, [fp, #-8]
82000140:	e1a00003 	mov	r0, r3
82000144:	e24bd004 	sub	sp, fp, #4
82000148:	e8bd8800 	pop	{fp, pc}

8200014c <UART_getc_noblock>:
8200014c:	e92d4800 	push	{fp, lr}
82000150:	e28db004 	add	fp, sp, #4
82000154:	e24dd008 	sub	sp, sp, #8
82000158:	e1a00000 	nop			; (mov r0, r0)
8200015c:	e3093014 	movw	r3, #36884	; 0x9014
82000160:	e34434e0 	movt	r3, #17632	; 0x44e0
82000164:	e5933000 	ldr	r3, [r3]
82000168:	e2033001 	and	r3, r3, #1
8200016c:	e3530000 	cmp	r3, #0
82000170:	1a000001 	bne	8200017c <UART_getc_noblock+0x30>
82000174:	e3e03000 	mvn	r3, #0
82000178:	ea000007 	b	8200019c <UART_getc_noblock+0x50>
8200017c:	e3a03a09 	mov	r3, #36864	; 0x9000
82000180:	e34434e0 	movt	r3, #17632	; 0x44e0
82000184:	e5933000 	ldr	r3, [r3]
82000188:	e50b3008 	str	r3, [fp, #-8]
8200018c:	e51b3008 	ldr	r3, [fp, #-8]
82000190:	e1a00003 	mov	r0, r3
82000194:	eb00005d 	bl	82000310 <UART_putc>
82000198:	e51b3008 	ldr	r3, [fp, #-8]
8200019c:	e1a00003 	mov	r0, r3
820001a0:	e24bd004 	sub	sp, fp, #4
820001a4:	e8bd8800 	pop	{fp, pc}

820001a8 <UART_gethex>:
820001a8:	e92d4800 	push	{fp, lr}
820001ac:	e28db004 	add	fp, sp, #4
820001b0:	e24dd008 	sub	sp, sp, #8
820001b4:	e3a03000 	mov	r3, #0
820001b8:	e50b3008 	str	r3, [fp, #-8]
820001bc:	ebffffcd 	bl	820000f8 <UART_getc>
820001c0:	e50b000c 	str	r0, [fp, #-12]
820001c4:	e51b300c 	ldr	r3, [fp, #-12]
820001c8:	e3530020 	cmp	r3, #32
820001cc:	0a00002f 	beq	82000290 <UART_gethex+0xe8>
820001d0:	e51b300c 	ldr	r3, [fp, #-12]
820001d4:	e3530009 	cmp	r3, #9
820001d8:	0a00002c 	beq	82000290 <UART_gethex+0xe8>
820001dc:	e51b300c 	ldr	r3, [fp, #-12]
820001e0:	e353000d 	cmp	r3, #13
820001e4:	0a000029 	beq	82000290 <UART_gethex+0xe8>
820001e8:	e51b300c 	ldr	r3, [fp, #-12]
820001ec:	e353000a 	cmp	r3, #10
820001f0:	0a000026 	beq	82000290 <UART_gethex+0xe8>
820001f4:	e51b300c 	ldr	r3, [fp, #-12]
820001f8:	e353002f 	cmp	r3, #47	; 0x2f
820001fc:	da000009 	ble	82000228 <UART_gethex+0x80>
82000200:	e51b300c 	ldr	r3, [fp, #-12]
82000204:	e3530039 	cmp	r3, #57	; 0x39
82000208:	ca000006 	bgt	82000228 <UART_gethex+0x80>
8200020c:	e51b3008 	ldr	r3, [fp, #-8]
82000210:	e1a02203 	lsl	r2, r3, #4
82000214:	e51b300c 	ldr	r3, [fp, #-12]
82000218:	e0823003 	add	r3, r2, r3
8200021c:	e2433030 	sub	r3, r3, #48	; 0x30
82000220:	e50b3008 	str	r3, [fp, #-8]
82000224:	ea000018 	b	8200028c <UART_gethex+0xe4>
82000228:	e51b300c 	ldr	r3, [fp, #-12]
8200022c:	e3530060 	cmp	r3, #96	; 0x60
82000230:	da000009 	ble	8200025c <UART_gethex+0xb4>
82000234:	e51b300c 	ldr	r3, [fp, #-12]
82000238:	e3530066 	cmp	r3, #102	; 0x66
8200023c:	ca000006 	bgt	8200025c <UART_gethex+0xb4>
82000240:	e51b3008 	ldr	r3, [fp, #-8]
82000244:	e1a02203 	lsl	r2, r3, #4
82000248:	e51b300c 	ldr	r3, [fp, #-12]
8200024c:	e0823003 	add	r3, r2, r3
82000250:	e2433057 	sub	r3, r3, #87	; 0x57
82000254:	e50b3008 	str	r3, [fp, #-8]
82000258:	ea00000b 	b	8200028c <UART_gethex+0xe4>
8200025c:	e51b300c 	ldr	r3, [fp, #-12]
82000260:	e3530040 	cmp	r3, #64	; 0x40
82000264:	da000008 	ble	8200028c <UART_gethex+0xe4>
82000268:	e51b300c 	ldr	r3, [fp, #-12]
8200026c:	e3530046 	cmp	r3, #70	; 0x46
82000270:	ca000005 	bgt	8200028c <UART_gethex+0xe4>
82000274:	e51b3008 	ldr	r3, [fp, #-8]
82000278:	e1a02203 	lsl	r2, r3, #4
8200027c:	e51b300c 	ldr	r3, [fp, #-12]
82000280:	e0823003 	add	r3, r2, r3
82000284:	e2433037 	sub	r3, r3, #55	; 0x37
82000288:	e50b3008 	str	r3, [fp, #-8]
8200028c:	eaffffca 	b	820001bc <UART_gethex+0x14>
82000290:	e51b3008 	ldr	r3, [fp, #-8]
82000294:	e1a00003 	mov	r0, r3
82000298:	e24bd004 	sub	sp, fp, #4
8200029c:	e8bd8800 	pop	{fp, pc}

820002a0 <UART_gets>:
820002a0:	e92d4800 	push	{fp, lr}
820002a4:	e28db004 	add	fp, sp, #4
820002a8:	e24dd010 	sub	sp, sp, #16
820002ac:	e50b0010 	str	r0, [fp, #-16]
820002b0:	e51b3010 	ldr	r3, [fp, #-16]
820002b4:	e50b3008 	str	r3, [fp, #-8]
820002b8:	ebffff8e 	bl	820000f8 <UART_getc>
820002bc:	e1a03000 	mov	r3, r0
820002c0:	e54b3009 	strb	r3, [fp, #-9]
820002c4:	e55b3009 	ldrb	r3, [fp, #-9]
820002c8:	e353000d 	cmp	r3, #13
820002cc:	0a000008 	beq	820002f4 <UART_gets+0x54>
820002d0:	e55b3009 	ldrb	r3, [fp, #-9]
820002d4:	e353000a 	cmp	r3, #10
820002d8:	0a000005 	beq	820002f4 <UART_gets+0x54>
820002dc:	e51b3008 	ldr	r3, [fp, #-8]
820002e0:	e2832001 	add	r2, r3, #1
820002e4:	e50b2008 	str	r2, [fp, #-8]
820002e8:	e55b2009 	ldrb	r2, [fp, #-9]
820002ec:	e5c32000 	strb	r2, [r3]
820002f0:	eafffff0 	b	820002b8 <UART_gets+0x18>
820002f4:	e51b3008 	ldr	r3, [fp, #-8]
820002f8:	e3a02000 	mov	r2, #0
820002fc:	e5c32000 	strb	r2, [r3]
82000300:	e51b3010 	ldr	r3, [fp, #-16]
82000304:	e1a00003 	mov	r0, r3
82000308:	e24bd004 	sub	sp, fp, #4
8200030c:	e8bd8800 	pop	{fp, pc}

82000310 <UART_putc>:
82000310:	e52db004 	push	{fp}		; (str fp, [sp, #-4]!)
82000314:	e28db000 	add	fp, sp, #0
82000318:	e24dd00c 	sub	sp, sp, #12
8200031c:	e50b0008 	str	r0, [fp, #-8]
82000320:	e51b3008 	ldr	r3, [fp, #-8]
82000324:	e353000d 	cmp	r3, #13
82000328:	0a000002 	beq	82000338 <UART_putc+0x28>
8200032c:	e51b3008 	ldr	r3, [fp, #-8]
82000330:	e353000a 	cmp	r3, #10
82000334:	1a00000e 	bne	82000374 <UART_putc+0x64>
82000338:	e3a0300d 	mov	r3, #13
8200033c:	e50b3008 	str	r3, [fp, #-8]
82000340:	e1a00000 	nop			; (mov r0, r0)
82000344:	e3093014 	movw	r3, #36884	; 0x9014
82000348:	e34434e0 	movt	r3, #17632	; 0x44e0
8200034c:	e5933000 	ldr	r3, [r3]
82000350:	e2033020 	and	r3, r3, #32
82000354:	e3530000 	cmp	r3, #0
82000358:	0afffff9 	beq	82000344 <UART_putc+0x34>
8200035c:	e3a03a09 	mov	r3, #36864	; 0x9000
82000360:	e34434e0 	movt	r3, #17632	; 0x44e0
82000364:	e51b2008 	ldr	r2, [fp, #-8]
82000368:	e5832000 	str	r2, [r3]
8200036c:	e3a0300a 	mov	r3, #10
82000370:	e50b3008 	str	r3, [fp, #-8]
82000374:	e1a00000 	nop			; (mov r0, r0)
82000378:	e3093014 	movw	r3, #36884	; 0x9014
8200037c:	e34434e0 	movt	r3, #17632	; 0x44e0
82000380:	e5933000 	ldr	r3, [r3]
82000384:	e2033020 	and	r3, r3, #32
82000388:	e3530000 	cmp	r3, #0
8200038c:	0afffff9 	beq	82000378 <UART_putc+0x68>
82000390:	e3a03a09 	mov	r3, #36864	; 0x9000
82000394:	e34434e0 	movt	r3, #17632	; 0x44e0
82000398:	e51b2008 	ldr	r2, [fp, #-8]
8200039c:	e5832000 	str	r2, [r3]
820003a0:	e51b3008 	ldr	r3, [fp, #-8]
820003a4:	e1a00003 	mov	r0, r3
820003a8:	e24bd000 	sub	sp, fp, #0
820003ac:	e49db004 	pop	{fp}		; (ldr fp, [sp], #4)
820003b0:	e12fff1e 	bx	lr

820003b4 <UART_puts>:
820003b4:	e92d4800 	push	{fp, lr}
820003b8:	e28db004 	add	fp, sp, #4
820003bc:	e24dd008 	sub	sp, sp, #8
820003c0:	e50b0008 	str	r0, [fp, #-8]
820003c4:	ea000005 	b	820003e0 <UART_puts+0x2c>
820003c8:	e51b3008 	ldr	r3, [fp, #-8]
820003cc:	e2832001 	add	r2, r3, #1
820003d0:	e50b2008 	str	r2, [fp, #-8]
820003d4:	e5d33000 	ldrb	r3, [r3]
820003d8:	e1a00003 	mov	r0, r3
820003dc:	ebffffcb 	bl	82000310 <UART_putc>
820003e0:	e51b3008 	ldr	r3, [fp, #-8]
820003e4:	e5d33000 	ldrb	r3, [r3]
820003e8:	e3530000 	cmp	r3, #0
820003ec:	1afffff5 	bne	820003c8 <UART_puts+0x14>
820003f0:	e3a03001 	mov	r3, #1
820003f4:	e1a00003 	mov	r0, r3
820003f8:	e24bd004 	sub	sp, fp, #4
820003fc:	e8bd8800 	pop	{fp, pc}

82000400 <UART_clear>:
82000400:	e92d4800 	push	{fp, lr}
82000404:	e28db004 	add	fp, sp, #4
82000408:	e3000f68 	movw	r0, #3944	; 0xf68
8200040c:	e3480200 	movt	r0, #33280	; 0x8200
82000410:	ebffffe7 	bl	820003b4 <UART_puts>
82000414:	e8bd8800 	pop	{fp, pc}

82000418 <UART_goto>:
82000418:	e92d4800 	push	{fp, lr}
8200041c:	e28db004 	add	fp, sp, #4
82000420:	e24dd018 	sub	sp, sp, #24
82000424:	e50b0018 	str	r0, [fp, #-24]
82000428:	e50b101c 	str	r1, [fp, #-28]
8200042c:	e51b3018 	ldr	r3, [fp, #-24]
82000430:	e2833001 	add	r3, r3, #1
82000434:	e50b3018 	str	r3, [fp, #-24]
82000438:	e51b301c 	ldr	r3, [fp, #-28]
8200043c:	e2833001 	add	r3, r3, #1
82000440:	e50b301c 	str	r3, [fp, #-28]
82000444:	e3a03000 	mov	r3, #0
82000448:	e50b3008 	str	r3, [fp, #-8]
8200044c:	e51b301c 	ldr	r3, [fp, #-28]
82000450:	e3530009 	cmp	r3, #9
82000454:	ca000015 	bgt	820004b0 <UART_goto+0x98>
82000458:	e51bc008 	ldr	ip, [fp, #-8]
8200045c:	e28c3001 	add	r3, ip, #1
82000460:	e50b3008 	str	r3, [fp, #-8]
82000464:	e51b201c 	ldr	r2, [fp, #-28]
82000468:	e3063667 	movw	r3, #26215	; 0x6667
8200046c:	e3463666 	movt	r3, #26214	; 0x6666
82000470:	e0c10392 	smull	r0, r1, r2, r3
82000474:	e1a01141 	asr	r1, r1, #2
82000478:	e1a03fc2 	asr	r3, r2, #31
8200047c:	e0633001 	rsb	r3, r3, r1
82000480:	e1a03083 	lsl	r3, r3, #1
82000484:	e1a01103 	lsl	r1, r3, #2
82000488:	e0833001 	add	r3, r3, r1
8200048c:	e0633002 	rsb	r3, r3, r2
82000490:	e6ef3073 	uxtb	r3, r3
82000494:	e3833030 	orr	r3, r3, #48	; 0x30
82000498:	e6ef3073 	uxtb	r3, r3
8200049c:	e6ef2073 	uxtb	r2, r3
820004a0:	e24b3004 	sub	r3, fp, #4
820004a4:	e083300c 	add	r3, r3, ip
820004a8:	e543200c 	strb	r2, [r3, #-12]
820004ac:	ea000028 	b	82000554 <UART_goto+0x13c>
820004b0:	e51b301c 	ldr	r3, [fp, #-28]
820004b4:	e3530063 	cmp	r3, #99	; 0x63
820004b8:	ca000025 	bgt	82000554 <UART_goto+0x13c>
820004bc:	e51b1008 	ldr	r1, [fp, #-8]
820004c0:	e2813001 	add	r3, r1, #1
820004c4:	e50b3008 	str	r3, [fp, #-8]
820004c8:	e51b001c 	ldr	r0, [fp, #-28]
820004cc:	e3063667 	movw	r3, #26215	; 0x6667
820004d0:	e3463666 	movt	r3, #26214	; 0x6666
820004d4:	e0c32390 	smull	r2, r3, r0, r3
820004d8:	e1a02143 	asr	r2, r3, #2
820004dc:	e1a03fc0 	asr	r3, r0, #31
820004e0:	e0633002 	rsb	r3, r3, r2
820004e4:	e6ef3073 	uxtb	r3, r3
820004e8:	e3833030 	orr	r3, r3, #48	; 0x30
820004ec:	e6ef3073 	uxtb	r3, r3
820004f0:	e6ef2073 	uxtb	r2, r3
820004f4:	e24b3004 	sub	r3, fp, #4
820004f8:	e0833001 	add	r3, r3, r1
820004fc:	e543200c 	strb	r2, [r3, #-12]
82000500:	e51bc008 	ldr	ip, [fp, #-8]
82000504:	e28c3001 	add	r3, ip, #1
82000508:	e50b3008 	str	r3, [fp, #-8]
8200050c:	e51b201c 	ldr	r2, [fp, #-28]
82000510:	e3063667 	movw	r3, #26215	; 0x6667
82000514:	e3463666 	movt	r3, #26214	; 0x6666
82000518:	e0c10392 	smull	r0, r1, r2, r3
8200051c:	e1a01141 	asr	r1, r1, #2
82000520:	e1a03fc2 	asr	r3, r2, #31
82000524:	e0633001 	rsb	r3, r3, r1
82000528:	e1a03083 	lsl	r3, r3, #1
8200052c:	e1a01103 	lsl	r1, r3, #2
82000530:	e0833001 	add	r3, r3, r1
82000534:	e0633002 	rsb	r3, r3, r2
82000538:	e6ef3073 	uxtb	r3, r3
8200053c:	e3833030 	orr	r3, r3, #48	; 0x30
82000540:	e6ef3073 	uxtb	r3, r3
82000544:	e6ef2073 	uxtb	r2, r3
82000548:	e24b3004 	sub	r3, fp, #4
8200054c:	e083300c 	add	r3, r3, ip
82000550:	e543200c 	strb	r2, [r3, #-12]
82000554:	e51b3008 	ldr	r3, [fp, #-8]
82000558:	e2832001 	add	r2, r3, #1
8200055c:	e50b2008 	str	r2, [fp, #-8]
82000560:	e24b2004 	sub	r2, fp, #4
82000564:	e0823003 	add	r3, r2, r3
82000568:	e3a02000 	mov	r2, #0
8200056c:	e543200c 	strb	r2, [r3, #-12]
82000570:	e3a03000 	mov	r3, #0
82000574:	e50b3008 	str	r3, [fp, #-8]
82000578:	e51b3018 	ldr	r3, [fp, #-24]
8200057c:	e3530009 	cmp	r3, #9
82000580:	ca000015 	bgt	820005dc <UART_goto+0x1c4>
82000584:	e51bc008 	ldr	ip, [fp, #-8]
82000588:	e28c3001 	add	r3, ip, #1
8200058c:	e50b3008 	str	r3, [fp, #-8]
82000590:	e51b2018 	ldr	r2, [fp, #-24]
82000594:	e3063667 	movw	r3, #26215	; 0x6667
82000598:	e3463666 	movt	r3, #26214	; 0x6666
8200059c:	e0c10392 	smull	r0, r1, r2, r3
820005a0:	e1a01141 	asr	r1, r1, #2
820005a4:	e1a03fc2 	asr	r3, r2, #31
820005a8:	e0633001 	rsb	r3, r3, r1
820005ac:	e1a03083 	lsl	r3, r3, #1
820005b0:	e1a01103 	lsl	r1, r3, #2
820005b4:	e0833001 	add	r3, r3, r1
820005b8:	e0633002 	rsb	r3, r3, r2
820005bc:	e6ef3073 	uxtb	r3, r3
820005c0:	e3833030 	orr	r3, r3, #48	; 0x30
820005c4:	e6ef3073 	uxtb	r3, r3
820005c8:	e6ef2073 	uxtb	r2, r3
820005cc:	e24b3004 	sub	r3, fp, #4
820005d0:	e083300c 	add	r3, r3, ip
820005d4:	e5432008 	strb	r2, [r3, #-8]
820005d8:	ea000028 	b	82000680 <UART_goto+0x268>
820005dc:	e51b3018 	ldr	r3, [fp, #-24]
820005e0:	e3530063 	cmp	r3, #99	; 0x63
820005e4:	ca000025 	bgt	82000680 <UART_goto+0x268>
820005e8:	e51b1008 	ldr	r1, [fp, #-8]
820005ec:	e2813001 	add	r3, r1, #1
820005f0:	e50b3008 	str	r3, [fp, #-8]
820005f4:	e51b0018 	ldr	r0, [fp, #-24]
820005f8:	e3063667 	movw	r3, #26215	; 0x6667
820005fc:	e3463666 	movt	r3, #26214	; 0x6666
82000600:	e0c32390 	smull	r2, r3, r0, r3
82000604:	e1a02143 	asr	r2, r3, #2
82000608:	e1a03fc0 	asr	r3, r0, #31
8200060c:	e0633002 	rsb	r3, r3, r2
82000610:	e6ef3073 	uxtb	r3, r3
82000614:	e3833030 	orr	r3, r3, #48	; 0x30
82000618:	e6ef3073 	uxtb	r3, r3
8200061c:	e6ef2073 	uxtb	r2, r3
82000620:	e24b3004 	sub	r3, fp, #4
82000624:	e0833001 	add	r3, r3, r1
82000628:	e5432008 	strb	r2, [r3, #-8]
8200062c:	e51bc008 	ldr	ip, [fp, #-8]
82000630:	e28c3001 	add	r3, ip, #1
82000634:	e50b3008 	str	r3, [fp, #-8]
82000638:	e51b2018 	ldr	r2, [fp, #-24]
8200063c:	e3063667 	movw	r3, #26215	; 0x6667
82000640:	e3463666 	movt	r3, #26214	; 0x6666
82000644:	e0c10392 	smull	r0, r1, r2, r3
82000648:	e1a01141 	asr	r1, r1, #2
8200064c:	e1a03fc2 	asr	r3, r2, #31
82000650:	e0633001 	rsb	r3, r3, r1
82000654:	e1a03083 	lsl	r3, r3, #1
82000658:	e1a01103 	lsl	r1, r3, #2
8200065c:	e0833001 	add	r3, r3, r1
82000660:	e0633002 	rsb	r3, r3, r2
82000664:	e6ef3073 	uxtb	r3, r3
82000668:	e3833030 	orr	r3, r3, #48	; 0x30
8200066c:	e6ef3073 	uxtb	r3, r3
82000670:	e6ef2073 	uxtb	r2, r3
82000674:	e24b3004 	sub	r3, fp, #4
82000678:	e083300c 	add	r3, r3, ip
8200067c:	e5432008 	strb	r2, [r3, #-8]
82000680:	e51b3008 	ldr	r3, [fp, #-8]
82000684:	e2832001 	add	r2, r3, #1
82000688:	e50b2008 	str	r2, [fp, #-8]
8200068c:	e24b2004 	sub	r2, fp, #4
82000690:	e0823003 	add	r3, r2, r3
82000694:	e3a02000 	mov	r2, #0
82000698:	e5432008 	strb	r2, [r3, #-8]
8200069c:	e3000f70 	movw	r0, #3952	; 0xf70
820006a0:	e3480200 	movt	r0, #33280	; 0x8200
820006a4:	ebffff42 	bl	820003b4 <UART_puts>
820006a8:	e24b3010 	sub	r3, fp, #16
820006ac:	e1a00003 	mov	r0, r3
820006b0:	ebffff3f 	bl	820003b4 <UART_puts>
820006b4:	e3a0003b 	mov	r0, #59	; 0x3b
820006b8:	ebffff14 	bl	82000310 <UART_putc>
820006bc:	e24b300c 	sub	r3, fp, #12
820006c0:	e1a00003 	mov	r0, r3
820006c4:	ebffff3a 	bl	820003b4 <UART_puts>
820006c8:	e3a00048 	mov	r0, #72	; 0x48
820006cc:	ebffff0f 	bl	82000310 <UART_putc>
820006d0:	e24bd004 	sub	sp, fp, #4
820006d4:	e8bd8800 	pop	{fp, pc}

820006d8 <UART_sprintf>:
820006d8:	e92d000e 	push	{r1, r2, r3}
820006dc:	e92d4810 	push	{r4, fp, lr}
820006e0:	e28db008 	add	fp, sp, #8
820006e4:	e24dd008 	sub	sp, sp, #8
820006e8:	e50b000c 	str	r0, [fp, #-12]
820006ec:	e28b4004 	add	r4, fp, #4
820006f0:	e24b300c 	sub	r3, fp, #12
820006f4:	e1a01004 	mov	r1, r4
820006f8:	e1a00003 	mov	r0, r3
820006fc:	eb0000d7 	bl	82000a60 <print>
82000700:	e1a03000 	mov	r3, r0
82000704:	e1a00003 	mov	r0, r3
82000708:	e24bd008 	sub	sp, fp, #8
8200070c:	e8bd4810 	pop	{r4, fp, lr}
82000710:	e28dd00c 	add	sp, sp, #12
82000714:	e12fff1e 	bx	lr

82000718 <UART_printf>:
82000718:	e92d000f 	push	{r0, r1, r2, r3}
8200071c:	e92d4830 	push	{r4, r5, fp, lr}
82000720:	e28db00c 	add	fp, sp, #12
82000724:	e28b4004 	add	r4, fp, #4
82000728:	e1a01004 	mov	r1, r4
8200072c:	e3a00000 	mov	r0, #0
82000730:	eb0000ca 	bl	82000a60 <print>
82000734:	e1a03000 	mov	r3, r0
82000738:	e1a00003 	mov	r0, r3
8200073c:	e24bd00c 	sub	sp, fp, #12
82000740:	e8bd4830 	pop	{r4, r5, fp, lr}
82000744:	e28dd010 	add	sp, sp, #16
82000748:	e12fff1e 	bx	lr

8200074c <printchar>:
8200074c:	e92d4800 	push	{fp, lr}
82000750:	e28db004 	add	fp, sp, #4
82000754:	e24dd008 	sub	sp, sp, #8
82000758:	e50b0008 	str	r0, [fp, #-8]
8200075c:	e50b100c 	str	r1, [fp, #-12]
82000760:	e51b3008 	ldr	r3, [fp, #-8]
82000764:	e3530000 	cmp	r3, #0
82000768:	0a00000a 	beq	82000798 <printchar+0x4c>
8200076c:	e51b3008 	ldr	r3, [fp, #-8]
82000770:	e5933000 	ldr	r3, [r3]
82000774:	e51b200c 	ldr	r2, [fp, #-12]
82000778:	e6ef2072 	uxtb	r2, r2
8200077c:	e5c32000 	strb	r2, [r3]
82000780:	e51b3008 	ldr	r3, [fp, #-8]
82000784:	e5933000 	ldr	r3, [r3]
82000788:	e2832001 	add	r2, r3, #1
8200078c:	e51b3008 	ldr	r3, [fp, #-8]
82000790:	e5832000 	str	r2, [r3]
82000794:	ea000001 	b	820007a0 <printchar+0x54>
82000798:	e51b000c 	ldr	r0, [fp, #-12]
8200079c:	ebfffedb 	bl	82000310 <UART_putc>
820007a0:	e24bd004 	sub	sp, fp, #4
820007a4:	e8bd8800 	pop	{fp, pc}

820007a8 <prints>:
820007a8:	e92d48f0 	push	{r4, r5, r6, r7, fp, lr}
820007ac:	e28db014 	add	fp, sp, #20
820007b0:	e24dd010 	sub	sp, sp, #16
820007b4:	e50b0018 	str	r0, [fp, #-24]
820007b8:	e50b101c 	str	r1, [fp, #-28]
820007bc:	e50b2020 	str	r2, [fp, #-32]
820007c0:	e50b3024 	str	r3, [fp, #-36]	; 0x24
820007c4:	e3a04000 	mov	r4, #0
820007c8:	e3a07020 	mov	r7, #32
820007cc:	e51b3020 	ldr	r3, [fp, #-32]
820007d0:	e3530000 	cmp	r3, #0
820007d4:	da000015 	ble	82000830 <prints+0x88>
820007d8:	e3a05000 	mov	r5, #0
820007dc:	e51b601c 	ldr	r6, [fp, #-28]
820007e0:	ea000001 	b	820007ec <prints+0x44>
820007e4:	e2855001 	add	r5, r5, #1
820007e8:	e2866001 	add	r6, r6, #1
820007ec:	e5d63000 	ldrb	r3, [r6]
820007f0:	e3530000 	cmp	r3, #0
820007f4:	1afffffa 	bne	820007e4 <prints+0x3c>
820007f8:	e51b3020 	ldr	r3, [fp, #-32]
820007fc:	e1550003 	cmp	r5, r3
82000800:	ba000002 	blt	82000810 <prints+0x68>
82000804:	e3a03000 	mov	r3, #0
82000808:	e50b3020 	str	r3, [fp, #-32]
8200080c:	ea000002 	b	8200081c <prints+0x74>
82000810:	e51b3020 	ldr	r3, [fp, #-32]
82000814:	e0653003 	rsb	r3, r5, r3
82000818:	e50b3020 	str	r3, [fp, #-32]
8200081c:	e51b3024 	ldr	r3, [fp, #-36]	; 0x24
82000820:	e2033002 	and	r3, r3, #2
82000824:	e3530000 	cmp	r3, #0
82000828:	0a000000 	beq	82000830 <prints+0x88>
8200082c:	e3a07030 	mov	r7, #48	; 0x30
82000830:	e51b3024 	ldr	r3, [fp, #-36]	; 0x24
82000834:	e2033001 	and	r3, r3, #1
82000838:	e3530000 	cmp	r3, #0
8200083c:	1a00000a 	bne	8200086c <prints+0xc4>
82000840:	ea000006 	b	82000860 <prints+0xb8>
82000844:	e1a01007 	mov	r1, r7
82000848:	e51b0018 	ldr	r0, [fp, #-24]
8200084c:	ebffffbe 	bl	8200074c <printchar>
82000850:	e2844001 	add	r4, r4, #1
82000854:	e51b3020 	ldr	r3, [fp, #-32]
82000858:	e2433001 	sub	r3, r3, #1
8200085c:	e50b3020 	str	r3, [fp, #-32]
82000860:	e51b3020 	ldr	r3, [fp, #-32]
82000864:	e3530000 	cmp	r3, #0
82000868:	cafffff5 	bgt	82000844 <prints+0x9c>
8200086c:	ea000008 	b	82000894 <prints+0xec>
82000870:	e51b301c 	ldr	r3, [fp, #-28]
82000874:	e5d33000 	ldrb	r3, [r3]
82000878:	e1a01003 	mov	r1, r3
8200087c:	e51b0018 	ldr	r0, [fp, #-24]
82000880:	ebffffb1 	bl	8200074c <printchar>
82000884:	e2844001 	add	r4, r4, #1
82000888:	e51b301c 	ldr	r3, [fp, #-28]
8200088c:	e2833001 	add	r3, r3, #1
82000890:	e50b301c 	str	r3, [fp, #-28]
82000894:	e51b301c 	ldr	r3, [fp, #-28]
82000898:	e5d33000 	ldrb	r3, [r3]
8200089c:	e3530000 	cmp	r3, #0
820008a0:	1afffff2 	bne	82000870 <prints+0xc8>
820008a4:	ea000006 	b	820008c4 <prints+0x11c>
820008a8:	e1a01007 	mov	r1, r7
820008ac:	e51b0018 	ldr	r0, [fp, #-24]
820008b0:	ebffffa5 	bl	8200074c <printchar>
820008b4:	e2844001 	add	r4, r4, #1
820008b8:	e51b3020 	ldr	r3, [fp, #-32]
820008bc:	e2433001 	sub	r3, r3, #1
820008c0:	e50b3020 	str	r3, [fp, #-32]
820008c4:	e51b3020 	ldr	r3, [fp, #-32]
820008c8:	e3530000 	cmp	r3, #0
820008cc:	cafffff5 	bgt	820008a8 <prints+0x100>
820008d0:	e1a03004 	mov	r3, r4
820008d4:	e1a00003 	mov	r0, r3
820008d8:	e24bd014 	sub	sp, fp, #20
820008dc:	e8bd88f0 	pop	{r4, r5, r6, r7, fp, pc}

820008e0 <printi>:
820008e0:	e92d49f0 	push	{r4, r5, r6, r7, r8, fp, lr}
820008e4:	e28db018 	add	fp, sp, #24
820008e8:	e24dd024 	sub	sp, sp, #36	; 0x24
820008ec:	e50b0030 	str	r0, [fp, #-48]	; 0x30
820008f0:	e50b1034 	str	r1, [fp, #-52]	; 0x34
820008f4:	e50b2038 	str	r2, [fp, #-56]	; 0x38
820008f8:	e50b303c 	str	r3, [fp, #-60]	; 0x3c
820008fc:	e3a08000 	mov	r8, #0
82000900:	e3a05000 	mov	r5, #0
82000904:	e51b7034 	ldr	r7, [fp, #-52]	; 0x34
82000908:	e51b3034 	ldr	r3, [fp, #-52]	; 0x34
8200090c:	e3530000 	cmp	r3, #0
82000910:	1a00000a 	bne	82000940 <printi+0x60>
82000914:	e3a03030 	mov	r3, #48	; 0x30
82000918:	e54b3028 	strb	r3, [fp, #-40]	; 0x28
8200091c:	e3a03000 	mov	r3, #0
82000920:	e54b3027 	strb	r3, [fp, #-39]	; 0x27
82000924:	e24b1028 	sub	r1, fp, #40	; 0x28
82000928:	e59b3008 	ldr	r3, [fp, #8]
8200092c:	e59b2004 	ldr	r2, [fp, #4]
82000930:	e51b0030 	ldr	r0, [fp, #-48]	; 0x30
82000934:	ebffff9b 	bl	820007a8 <prints>
82000938:	e1a03000 	mov	r3, r0
8200093c:	ea000044 	b	82000a54 <printi+0x174>
82000940:	e51b303c 	ldr	r3, [fp, #-60]	; 0x3c
82000944:	e3530000 	cmp	r3, #0
82000948:	0a000009 	beq	82000974 <printi+0x94>
8200094c:	e51b3038 	ldr	r3, [fp, #-56]	; 0x38
82000950:	e353000a 	cmp	r3, #10
82000954:	1a000006 	bne	82000974 <printi+0x94>
82000958:	e51b3034 	ldr	r3, [fp, #-52]	; 0x34
8200095c:	e3530000 	cmp	r3, #0
82000960:	aa000003 	bge	82000974 <printi+0x94>
82000964:	e3a08001 	mov	r8, #1
82000968:	e51b3034 	ldr	r3, [fp, #-52]	; 0x34
8200096c:	e2633000 	rsb	r3, r3, #0
82000970:	e1a07003 	mov	r7, r3
82000974:	e24b4028 	sub	r4, fp, #40	; 0x28
82000978:	e284400b 	add	r4, r4, #11
8200097c:	e3a03000 	mov	r3, #0
82000980:	e5c43000 	strb	r3, [r4]
82000984:	ea000015 	b	820009e0 <printi+0x100>
82000988:	e51b3038 	ldr	r3, [fp, #-56]	; 0x38
8200098c:	e1a01003 	mov	r1, r3
82000990:	e1a00007 	mov	r0, r7
82000994:	eb000168 	bl	82000f3c <__aeabi_uidivmod>
82000998:	e1a03001 	mov	r3, r1
8200099c:	e1a06003 	mov	r6, r3
820009a0:	e3560009 	cmp	r6, #9
820009a4:	da000002 	ble	820009b4 <printi+0xd4>
820009a8:	e59b300c 	ldr	r3, [fp, #12]
820009ac:	e243303a 	sub	r3, r3, #58	; 0x3a
820009b0:	e0866003 	add	r6, r6, r3
820009b4:	e2444001 	sub	r4, r4, #1
820009b8:	e6ef3076 	uxtb	r3, r6
820009bc:	e2833030 	add	r3, r3, #48	; 0x30
820009c0:	e6ef3073 	uxtb	r3, r3
820009c4:	e5c43000 	strb	r3, [r4]
820009c8:	e51b3038 	ldr	r3, [fp, #-56]	; 0x38
820009cc:	e1a01003 	mov	r1, r3
820009d0:	e1a00007 	mov	r0, r7
820009d4:	eb0000dd 	bl	82000d50 <__aeabi_uidiv>
820009d8:	e1a03000 	mov	r3, r0
820009dc:	e1a07003 	mov	r7, r3
820009e0:	e3570000 	cmp	r7, #0
820009e4:	1affffe7 	bne	82000988 <printi+0xa8>
820009e8:	e3580000 	cmp	r8, #0
820009ec:	0a000011 	beq	82000a38 <printi+0x158>
820009f0:	e59b3004 	ldr	r3, [fp, #4]
820009f4:	e3530000 	cmp	r3, #0
820009f8:	0a00000b 	beq	82000a2c <printi+0x14c>
820009fc:	e59b3008 	ldr	r3, [fp, #8]
82000a00:	e2033002 	and	r3, r3, #2
82000a04:	e3530000 	cmp	r3, #0
82000a08:	0a000007 	beq	82000a2c <printi+0x14c>
82000a0c:	e3a0102d 	mov	r1, #45	; 0x2d
82000a10:	e51b0030 	ldr	r0, [fp, #-48]	; 0x30
82000a14:	ebffff4c 	bl	8200074c <printchar>
82000a18:	e2855001 	add	r5, r5, #1
82000a1c:	e59b3004 	ldr	r3, [fp, #4]
82000a20:	e2433001 	sub	r3, r3, #1
82000a24:	e58b3004 	str	r3, [fp, #4]
82000a28:	ea000002 	b	82000a38 <printi+0x158>
82000a2c:	e2444001 	sub	r4, r4, #1
82000a30:	e3a0302d 	mov	r3, #45	; 0x2d
82000a34:	e5c43000 	strb	r3, [r4]
82000a38:	e59b3008 	ldr	r3, [fp, #8]
82000a3c:	e59b2004 	ldr	r2, [fp, #4]
82000a40:	e1a01004 	mov	r1, r4
82000a44:	e51b0030 	ldr	r0, [fp, #-48]	; 0x30
82000a48:	ebffff56 	bl	820007a8 <prints>
82000a4c:	e1a03000 	mov	r3, r0
82000a50:	e0833005 	add	r3, r3, r5
82000a54:	e1a00003 	mov	r0, r3
82000a58:	e24bd018 	sub	sp, fp, #24
82000a5c:	e8bd89f0 	pop	{r4, r5, r6, r7, r8, fp, pc}

82000a60 <print>:
82000a60:	e92d49f0 	push	{r4, r5, r6, r7, r8, fp, lr}
82000a64:	e28db018 	add	fp, sp, #24
82000a68:	e24dd024 	sub	sp, sp, #36	; 0x24
82000a6c:	e50b0028 	str	r0, [fp, #-40]	; 0x28
82000a70:	e50b102c 	str	r1, [fp, #-44]	; 0x2c
82000a74:	e3a05000 	mov	r5, #0
82000a78:	e51b302c 	ldr	r3, [fp, #-44]	; 0x2c
82000a7c:	e2832004 	add	r2, r3, #4
82000a80:	e50b202c 	str	r2, [fp, #-44]	; 0x2c
82000a84:	e5933000 	ldr	r3, [r3]
82000a88:	e1a04003 	mov	r4, r3
82000a8c:	ea00009c 	b	82000d04 <print+0x2a4>
82000a90:	e5d43000 	ldrb	r3, [r4]
82000a94:	e3530025 	cmp	r3, #37	; 0x25
82000a98:	1a000093 	bne	82000cec <print+0x28c>
82000a9c:	e2844001 	add	r4, r4, #1
82000aa0:	e3a07000 	mov	r7, #0
82000aa4:	e1a06007 	mov	r6, r7
82000aa8:	e5d43000 	ldrb	r3, [r4]
82000aac:	e3530000 	cmp	r3, #0
82000ab0:	1a000000 	bne	82000ab8 <print+0x58>
82000ab4:	ea000095 	b	82000d10 <print+0x2b0>
82000ab8:	e5d43000 	ldrb	r3, [r4]
82000abc:	e3530025 	cmp	r3, #37	; 0x25
82000ac0:	1a000000 	bne	82000ac8 <print+0x68>
82000ac4:	ea000088 	b	82000cec <print+0x28c>
82000ac8:	e5d43000 	ldrb	r3, [r4]
82000acc:	e353002d 	cmp	r3, #45	; 0x2d
82000ad0:	1a000001 	bne	82000adc <print+0x7c>
82000ad4:	e2844001 	add	r4, r4, #1
82000ad8:	e3a07001 	mov	r7, #1
82000adc:	ea000001 	b	82000ae8 <print+0x88>
82000ae0:	e2844001 	add	r4, r4, #1
82000ae4:	e3877002 	orr	r7, r7, #2
82000ae8:	e5d43000 	ldrb	r3, [r4]
82000aec:	e3530030 	cmp	r3, #48	; 0x30
82000af0:	0afffffa 	beq	82000ae0 <print+0x80>
82000af4:	ea000007 	b	82000b18 <print+0xb8>
82000af8:	e1a03006 	mov	r3, r6
82000afc:	e1a03083 	lsl	r3, r3, #1
82000b00:	e1a02103 	lsl	r2, r3, #2
82000b04:	e0836002 	add	r6, r3, r2
82000b08:	e5d43000 	ldrb	r3, [r4]
82000b0c:	e2433030 	sub	r3, r3, #48	; 0x30
82000b10:	e0866003 	add	r6, r6, r3
82000b14:	e2844001 	add	r4, r4, #1
82000b18:	e5d43000 	ldrb	r3, [r4]
82000b1c:	e353002f 	cmp	r3, #47	; 0x2f
82000b20:	9a000002 	bls	82000b30 <print+0xd0>
82000b24:	e5d43000 	ldrb	r3, [r4]
82000b28:	e3530039 	cmp	r3, #57	; 0x39
82000b2c:	9afffff1 	bls	82000af8 <print+0x98>
82000b30:	e5d43000 	ldrb	r3, [r4]
82000b34:	e3530073 	cmp	r3, #115	; 0x73
82000b38:	1a000010 	bne	82000b80 <print+0x120>
82000b3c:	e51b302c 	ldr	r3, [fp, #-44]	; 0x2c
82000b40:	e2832004 	add	r2, r3, #4
82000b44:	e50b202c 	str	r2, [fp, #-44]	; 0x2c
82000b48:	e5938000 	ldr	r8, [r3]
82000b4c:	e3580000 	cmp	r8, #0
82000b50:	0a000001 	beq	82000b5c <print+0xfc>
82000b54:	e1a01008 	mov	r1, r8
82000b58:	ea000001 	b	82000b64 <print+0x104>
82000b5c:	e3001f74 	movw	r1, #3956	; 0xf74
82000b60:	e3481200 	movt	r1, #33280	; 0x8200
82000b64:	e1a03007 	mov	r3, r7
82000b68:	e1a02006 	mov	r2, r6
82000b6c:	e51b0028 	ldr	r0, [fp, #-40]	; 0x28
82000b70:	ebffff0c 	bl	820007a8 <prints>
82000b74:	e1a03000 	mov	r3, r0
82000b78:	e0855003 	add	r5, r5, r3
82000b7c:	ea00005f 	b	82000d00 <print+0x2a0>
82000b80:	e5d43000 	ldrb	r3, [r4]
82000b84:	e3530064 	cmp	r3, #100	; 0x64
82000b88:	1a00000e 	bne	82000bc8 <print+0x168>
82000b8c:	e51b302c 	ldr	r3, [fp, #-44]	; 0x2c
82000b90:	e2832004 	add	r2, r3, #4
82000b94:	e50b202c 	str	r2, [fp, #-44]	; 0x2c
82000b98:	e5931000 	ldr	r1, [r3]
82000b9c:	e3a03061 	mov	r3, #97	; 0x61
82000ba0:	e58d3008 	str	r3, [sp, #8]
82000ba4:	e58d7004 	str	r7, [sp, #4]
82000ba8:	e58d6000 	str	r6, [sp]
82000bac:	e3a03001 	mov	r3, #1
82000bb0:	e3a0200a 	mov	r2, #10
82000bb4:	e51b0028 	ldr	r0, [fp, #-40]	; 0x28
82000bb8:	ebffff48 	bl	820008e0 <printi>
82000bbc:	e1a03000 	mov	r3, r0
82000bc0:	e0855003 	add	r5, r5, r3
82000bc4:	ea00004d 	b	82000d00 <print+0x2a0>
82000bc8:	e5d43000 	ldrb	r3, [r4]
82000bcc:	e3530078 	cmp	r3, #120	; 0x78
82000bd0:	1a00000e 	bne	82000c10 <print+0x1b0>
82000bd4:	e51b302c 	ldr	r3, [fp, #-44]	; 0x2c
82000bd8:	e2832004 	add	r2, r3, #4
82000bdc:	e50b202c 	str	r2, [fp, #-44]	; 0x2c
82000be0:	e5931000 	ldr	r1, [r3]
82000be4:	e3a03061 	mov	r3, #97	; 0x61
82000be8:	e58d3008 	str	r3, [sp, #8]
82000bec:	e58d7004 	str	r7, [sp, #4]
82000bf0:	e58d6000 	str	r6, [sp]
82000bf4:	e3a03000 	mov	r3, #0
82000bf8:	e3a02010 	mov	r2, #16
82000bfc:	e51b0028 	ldr	r0, [fp, #-40]	; 0x28
82000c00:	ebffff36 	bl	820008e0 <printi>
82000c04:	e1a03000 	mov	r3, r0
82000c08:	e0855003 	add	r5, r5, r3
82000c0c:	ea00003b 	b	82000d00 <print+0x2a0>
82000c10:	e5d43000 	ldrb	r3, [r4]
82000c14:	e3530058 	cmp	r3, #88	; 0x58
82000c18:	1a00000e 	bne	82000c58 <print+0x1f8>
82000c1c:	e51b302c 	ldr	r3, [fp, #-44]	; 0x2c
82000c20:	e2832004 	add	r2, r3, #4
82000c24:	e50b202c 	str	r2, [fp, #-44]	; 0x2c
82000c28:	e5931000 	ldr	r1, [r3]
82000c2c:	e3a03041 	mov	r3, #65	; 0x41
82000c30:	e58d3008 	str	r3, [sp, #8]
82000c34:	e58d7004 	str	r7, [sp, #4]
82000c38:	e58d6000 	str	r6, [sp]
82000c3c:	e3a03000 	mov	r3, #0
82000c40:	e3a02010 	mov	r2, #16
82000c44:	e51b0028 	ldr	r0, [fp, #-40]	; 0x28
82000c48:	ebffff24 	bl	820008e0 <printi>
82000c4c:	e1a03000 	mov	r3, r0
82000c50:	e0855003 	add	r5, r5, r3
82000c54:	ea000029 	b	82000d00 <print+0x2a0>
82000c58:	e5d43000 	ldrb	r3, [r4]
82000c5c:	e3530075 	cmp	r3, #117	; 0x75
82000c60:	1a00000e 	bne	82000ca0 <print+0x240>
82000c64:	e51b302c 	ldr	r3, [fp, #-44]	; 0x2c
82000c68:	e2832004 	add	r2, r3, #4
82000c6c:	e50b202c 	str	r2, [fp, #-44]	; 0x2c
82000c70:	e5931000 	ldr	r1, [r3]
82000c74:	e3a03061 	mov	r3, #97	; 0x61
82000c78:	e58d3008 	str	r3, [sp, #8]
82000c7c:	e58d7004 	str	r7, [sp, #4]
82000c80:	e58d6000 	str	r6, [sp]
82000c84:	e3a03000 	mov	r3, #0
82000c88:	e3a0200a 	mov	r2, #10
82000c8c:	e51b0028 	ldr	r0, [fp, #-40]	; 0x28
82000c90:	ebffff12 	bl	820008e0 <printi>
82000c94:	e1a03000 	mov	r3, r0
82000c98:	e0855003 	add	r5, r5, r3
82000c9c:	ea000017 	b	82000d00 <print+0x2a0>
82000ca0:	e5d43000 	ldrb	r3, [r4]
82000ca4:	e3530063 	cmp	r3, #99	; 0x63
82000ca8:	1a000014 	bne	82000d00 <print+0x2a0>
82000cac:	e51b302c 	ldr	r3, [fp, #-44]	; 0x2c
82000cb0:	e2832004 	add	r2, r3, #4
82000cb4:	e50b202c 	str	r2, [fp, #-44]	; 0x2c
82000cb8:	e5933000 	ldr	r3, [r3]
82000cbc:	e6ef3073 	uxtb	r3, r3
82000cc0:	e54b3020 	strb	r3, [fp, #-32]
82000cc4:	e3a03000 	mov	r3, #0
82000cc8:	e54b301f 	strb	r3, [fp, #-31]
82000ccc:	e24b1020 	sub	r1, fp, #32
82000cd0:	e1a03007 	mov	r3, r7
82000cd4:	e1a02006 	mov	r2, r6
82000cd8:	e51b0028 	ldr	r0, [fp, #-40]	; 0x28
82000cdc:	ebfffeb1 	bl	820007a8 <prints>
82000ce0:	e1a03000 	mov	r3, r0
82000ce4:	e0855003 	add	r5, r5, r3
82000ce8:	ea000004 	b	82000d00 <print+0x2a0>
82000cec:	e5d43000 	ldrb	r3, [r4]
82000cf0:	e1a01003 	mov	r1, r3
82000cf4:	e51b0028 	ldr	r0, [fp, #-40]	; 0x28
82000cf8:	ebfffe93 	bl	8200074c <printchar>
82000cfc:	e2855001 	add	r5, r5, #1
82000d00:	e2844001 	add	r4, r4, #1
82000d04:	e5d43000 	ldrb	r3, [r4]
82000d08:	e3530000 	cmp	r3, #0
82000d0c:	1affff5f 	bne	82000a90 <print+0x30>
82000d10:	e51b3028 	ldr	r3, [fp, #-40]	; 0x28
82000d14:	e3530000 	cmp	r3, #0
82000d18:	0a000003 	beq	82000d2c <print+0x2cc>
82000d1c:	e51b3028 	ldr	r3, [fp, #-40]	; 0x28
82000d20:	e5933000 	ldr	r3, [r3]
82000d24:	e3a02000 	mov	r2, #0
82000d28:	e5c32000 	strb	r2, [r3]
82000d2c:	e1a03005 	mov	r3, r5
82000d30:	e1a00003 	mov	r0, r3
82000d34:	e24bd018 	sub	sp, fp, #24
82000d38:	e8bd89f0 	pop	{r4, r5, r6, r7, r8, fp, pc}

82000d3c <raise>:
82000d3c:	e52db004 	push	{fp}		; (str fp, [sp, #-4]!)
82000d40:	e28db000 	add	fp, sp, #0
82000d44:	e24bd000 	sub	sp, fp, #0
82000d48:	e49db004 	pop	{fp}		; (ldr fp, [sp], #4)
82000d4c:	e12fff1e 	bx	lr

82000d50 <__aeabi_uidiv>:
82000d50:	e2512001 	subs	r2, r1, #1
82000d54:	012fff1e 	bxeq	lr
82000d58:	3a000074 	bcc	82000f30 <__aeabi_uidiv+0x1e0>
82000d5c:	e1500001 	cmp	r0, r1
82000d60:	9a00006b 	bls	82000f14 <__aeabi_uidiv+0x1c4>
82000d64:	e1110002 	tst	r1, r2
82000d68:	0a00006c 	beq	82000f20 <__aeabi_uidiv+0x1d0>
82000d6c:	e16f3f10 	clz	r3, r0
82000d70:	e16f2f11 	clz	r2, r1
82000d74:	e0423003 	sub	r3, r2, r3
82000d78:	e273301f 	rsbs	r3, r3, #31
82000d7c:	10833083 	addne	r3, r3, r3, lsl #1
82000d80:	e3a02000 	mov	r2, #0
82000d84:	108ff103 	addne	pc, pc, r3, lsl #2
82000d88:	e320f000 	nop	{0}
82000d8c:	e1500f81 	cmp	r0, r1, lsl #31
82000d90:	e0a22002 	adc	r2, r2, r2
82000d94:	20400f81 	subcs	r0, r0, r1, lsl #31
82000d98:	e1500f01 	cmp	r0, r1, lsl #30
82000d9c:	e0a22002 	adc	r2, r2, r2
82000da0:	20400f01 	subcs	r0, r0, r1, lsl #30
82000da4:	e1500e81 	cmp	r0, r1, lsl #29
82000da8:	e0a22002 	adc	r2, r2, r2
82000dac:	20400e81 	subcs	r0, r0, r1, lsl #29
82000db0:	e1500e01 	cmp	r0, r1, lsl #28
82000db4:	e0a22002 	adc	r2, r2, r2
82000db8:	20400e01 	subcs	r0, r0, r1, lsl #28
82000dbc:	e1500d81 	cmp	r0, r1, lsl #27
82000dc0:	e0a22002 	adc	r2, r2, r2
82000dc4:	20400d81 	subcs	r0, r0, r1, lsl #27
82000dc8:	e1500d01 	cmp	r0, r1, lsl #26
82000dcc:	e0a22002 	adc	r2, r2, r2
82000dd0:	20400d01 	subcs	r0, r0, r1, lsl #26
82000dd4:	e1500c81 	cmp	r0, r1, lsl #25
82000dd8:	e0a22002 	adc	r2, r2, r2
82000ddc:	20400c81 	subcs	r0, r0, r1, lsl #25
82000de0:	e1500c01 	cmp	r0, r1, lsl #24
82000de4:	e0a22002 	adc	r2, r2, r2
82000de8:	20400c01 	subcs	r0, r0, r1, lsl #24
82000dec:	e1500b81 	cmp	r0, r1, lsl #23
82000df0:	e0a22002 	adc	r2, r2, r2
82000df4:	20400b81 	subcs	r0, r0, r1, lsl #23
82000df8:	e1500b01 	cmp	r0, r1, lsl #22
82000dfc:	e0a22002 	adc	r2, r2, r2
82000e00:	20400b01 	subcs	r0, r0, r1, lsl #22
82000e04:	e1500a81 	cmp	r0, r1, lsl #21
82000e08:	e0a22002 	adc	r2, r2, r2
82000e0c:	20400a81 	subcs	r0, r0, r1, lsl #21
82000e10:	e1500a01 	cmp	r0, r1, lsl #20
82000e14:	e0a22002 	adc	r2, r2, r2
82000e18:	20400a01 	subcs	r0, r0, r1, lsl #20
82000e1c:	e1500981 	cmp	r0, r1, lsl #19
82000e20:	e0a22002 	adc	r2, r2, r2
82000e24:	20400981 	subcs	r0, r0, r1, lsl #19
82000e28:	e1500901 	cmp	r0, r1, lsl #18
82000e2c:	e0a22002 	adc	r2, r2, r2
82000e30:	20400901 	subcs	r0, r0, r1, lsl #18
82000e34:	e1500881 	cmp	r0, r1, lsl #17
82000e38:	e0a22002 	adc	r2, r2, r2
82000e3c:	20400881 	subcs	r0, r0, r1, lsl #17
82000e40:	e1500801 	cmp	r0, r1, lsl #16
82000e44:	e0a22002 	adc	r2, r2, r2
82000e48:	20400801 	subcs	r0, r0, r1, lsl #16
82000e4c:	e1500781 	cmp	r0, r1, lsl #15
82000e50:	e0a22002 	adc	r2, r2, r2
82000e54:	20400781 	subcs	r0, r0, r1, lsl #15
82000e58:	e1500701 	cmp	r0, r1, lsl #14
82000e5c:	e0a22002 	adc	r2, r2, r2
82000e60:	20400701 	subcs	r0, r0, r1, lsl #14
82000e64:	e1500681 	cmp	r0, r1, lsl #13
82000e68:	e0a22002 	adc	r2, r2, r2
82000e6c:	20400681 	subcs	r0, r0, r1, lsl #13
82000e70:	e1500601 	cmp	r0, r1, lsl #12
82000e74:	e0a22002 	adc	r2, r2, r2
82000e78:	20400601 	subcs	r0, r0, r1, lsl #12
82000e7c:	e1500581 	cmp	r0, r1, lsl #11
82000e80:	e0a22002 	adc	r2, r2, r2
82000e84:	20400581 	subcs	r0, r0, r1, lsl #11
82000e88:	e1500501 	cmp	r0, r1, lsl #10
82000e8c:	e0a22002 	adc	r2, r2, r2
82000e90:	20400501 	subcs	r0, r0, r1, lsl #10
82000e94:	e1500481 	cmp	r0, r1, lsl #9
82000e98:	e0a22002 	adc	r2, r2, r2
82000e9c:	20400481 	subcs	r0, r0, r1, lsl #9
82000ea0:	e1500401 	cmp	r0, r1, lsl #8
82000ea4:	e0a22002 	adc	r2, r2, r2
82000ea8:	20400401 	subcs	r0, r0, r1, lsl #8
82000eac:	e1500381 	cmp	r0, r1, lsl #7
82000eb0:	e0a22002 	adc	r2, r2, r2
82000eb4:	20400381 	subcs	r0, r0, r1, lsl #7
82000eb8:	e1500301 	cmp	r0, r1, lsl #6
82000ebc:	e0a22002 	adc	r2, r2, r2
82000ec0:	20400301 	subcs	r0, r0, r1, lsl #6
82000ec4:	e1500281 	cmp	r0, r1, lsl #5
82000ec8:	e0a22002 	adc	r2, r2, r2
82000ecc:	20400281 	subcs	r0, r0, r1, lsl #5
82000ed0:	e1500201 	cmp	r0, r1, lsl #4
82000ed4:	e0a22002 	adc	r2, r2, r2
82000ed8:	20400201 	subcs	r0, r0, r1, lsl #4
82000edc:	e1500181 	cmp	r0, r1, lsl #3
82000ee0:	e0a22002 	adc	r2, r2, r2
82000ee4:	20400181 	subcs	r0, r0, r1, lsl #3
82000ee8:	e1500101 	cmp	r0, r1, lsl #2
82000eec:	e0a22002 	adc	r2, r2, r2
82000ef0:	20400101 	subcs	r0, r0, r1, lsl #2
82000ef4:	e1500081 	cmp	r0, r1, lsl #1
82000ef8:	e0a22002 	adc	r2, r2, r2
82000efc:	20400081 	subcs	r0, r0, r1, lsl #1
82000f00:	e1500001 	cmp	r0, r1
82000f04:	e0a22002 	adc	r2, r2, r2
82000f08:	20400001 	subcs	r0, r0, r1
82000f0c:	e1a00002 	mov	r0, r2
82000f10:	e12fff1e 	bx	lr
82000f14:	03a00001 	moveq	r0, #1
82000f18:	13a00000 	movne	r0, #0
82000f1c:	e12fff1e 	bx	lr
82000f20:	e16f2f11 	clz	r2, r1
82000f24:	e262201f 	rsb	r2, r2, #31
82000f28:	e1a00230 	lsr	r0, r0, r2
82000f2c:	e12fff1e 	bx	lr
82000f30:	e3500000 	cmp	r0, #0
82000f34:	13e00000 	mvnne	r0, #0
82000f38:	ea000007 	b	82000f5c <__aeabi_idiv0>

82000f3c <__aeabi_uidivmod>:
82000f3c:	e3510000 	cmp	r1, #0
82000f40:	0afffffa 	beq	82000f30 <__aeabi_uidiv+0x1e0>
82000f44:	e92d4003 	push	{r0, r1, lr}
82000f48:	ebffff80 	bl	82000d50 <__aeabi_uidiv>
82000f4c:	e8bd4006 	pop	{r1, r2, lr}
82000f50:	e0030092 	mul	r3, r2, r0
82000f54:	e0411003 	sub	r1, r1, r3
82000f58:	e12fff1e 	bx	lr

82000f5c <__aeabi_idiv0>:
82000f5c:	e12fff1e 	bx	lr

Disassembly of section .rodata:

82000f60 <.LC0>:
82000f60:	3d216425 	cfstrscc	mvf6, [r1, #-148]!	; 0xffffff6c
82000f64:	000a6425 	andeq	r6, sl, r5, lsr #8

82000f68 <.LC0>:
82000f68:	1b485b1b 	blne	83217bdc <__bss_start+0x1216c60>
82000f6c:	00004a5b 	andeq	r4, r0, fp, asr sl

82000f70 <.LC1>:
82000f70:	00005b1b 	andeq	r5, r0, fp, lsl fp

82000f74 <.LC0>:
82000f74:	6c756e28 	ldclvs	14, cr6, [r5], #-160	; 0xffffff60
82000f78:	0000296c 	andeq	r2, r0, ip, ror #18

Disassembly of section .ARM.attributes:

00000000 <.ARM.attributes>:
   0:	00003841 	andeq	r3, r0, r1, asr #16
   4:	61656100 	cmnvs	r5, r0, lsl #2
   8:	01006962 	tsteq	r0, r2, ror #18
   c:	0000002e 	andeq	r0, r0, lr, lsr #32
  10:	726f4305 	rsbvc	r4, pc, #335544320	; 0x14000000
  14:	2d786574 	cfldr64cs	mvdx6, [r8, #-464]!	; 0xfffffe30
  18:	06003841 	streq	r3, [r0], -r1, asr #16
  1c:	0841070a 	stmdaeq	r1, {r1, r3, r8, r9, sl}^
  20:	0a020901 	beq	8242c <shift+0x8242c>
  24:	12010c03 	andne	r0, r1, #768	; 0x300
  28:	15011404 	strne	r1, [r1, #-1028]	; 0x404
  2c:	18031701 	stmdane	r3, {r0, r8, r9, sl, ip}
  30:	1b021a01 	blne	8683c <shift+0x8683c>
  34:	44012203 	strmi	r2, [r1], #-515	; 0x203
  38:	Address 0x0000000000000038 is out of bounds.


Disassembly of section .comment:

00000000 <.comment>:
   0:	3a434347 	bcc	10d0d24 <shift+0x10d0d24>
   4:	694c2820 	stmdbvs	ip, {r5, fp, sp}^
   8:	6f72616e 	svcvs	0x0072616e
   c:	43434720 	movtmi	r4, #14112	; 0x3720
  10:	392e3420 	stmdbcc	lr!, {r5, sl, ip, sp}
  14:	3130322d 	teqcc	r0, sp, lsr #4
  18:	31302e35 	teqcc	r0, r5, lsr lr
  1c:	2029332d 	eorcs	r3, r9, sp, lsr #6
  20:	2e392e34 	mrccs	14, 1, r2, cr9, cr4, {1}
  24:	30322033 	eorscc	r2, r2, r3, lsr r0
  28:	31303531 	teqcc	r0, r1, lsr r5
  2c:	28203331 	stmdacs	r0!, {r0, r4, r5, r8, r9, ip, sp}
  30:	72657270 	rsbvc	r7, r5, #112, 4
  34:	61656c65 	cmnvs	r5, r5, ror #24
  38:	00296573 	eoreq	r6, r9, r3, ror r5

Disassembly of section .debug_line:

00000000 <.debug_line>:
   0:	00000043 	andeq	r0, r0, r3, asr #32
   4:	001e0002 	andseq	r0, lr, r2
   8:	01020000 	mrseq	r0, (UNDEF: 2)
   c:	000d0efb 	strdeq	r0, [sp], -fp
  10:	01010101 	tsteq	r1, r1, lsl #2
  14:	01000000 	mrseq	r0, (UNDEF: 0)
  18:	00010000 	andeq	r0, r1, r0
  1c:	72617473 	rsbvc	r7, r1, #1929379840	; 0x73000000
  20:	00532e74 	subseq	r2, r3, r4, ror lr
  24:	00000000 	andeq	r0, r0, r0
  28:	00020500 	andeq	r0, r2, r0, lsl #10
  2c:	18820000 	stmne	r2, {}	; <UNPREDICTABLE>
  30:	302f2f2f 	eorcc	r2, pc, pc, lsr #30
  34:	2f302f2f 	svccs	0x00302f2f
  38:	302f2f2f 	eorcc	r2, pc, pc, lsr #30
  3c:	302f2f2f 	eorcc	r2, pc, pc, lsr #30
  40:	0a022f30 	beq	8bd08 <shift+0x8bd08>
  44:	4b010100 	blmi	4044c <shift+0x4044c>
  48:	02000000 	andeq	r0, r0, #0
  4c:	00001d00 	andeq	r1, r0, r0, lsl #26
  50:	fb010200 	blx	4085a <shift+0x4085a>
  54:	01000d0e 	tsteq	r0, lr, lsl #26
  58:	00010101 	andeq	r0, r1, r1, lsl #2
  5c:	00010000 	andeq	r0, r1, r0
  60:	66000100 	strvs	r0, [r0], -r0, lsl #2
  64:	2e746361 	cdpcs	3, 7, cr6, cr4, cr1, {3}
  68:	00000063 	andeq	r0, r0, r3, rrx
  6c:	05000000 	streq	r0, [r0, #-0]
  70:	00005c02 	andeq	r5, r0, r2, lsl #24
  74:	010d0382 	smlabbeq	sp, r2, r3, r0
  78:	040200a1 	streq	r0, [r2], #-161	; 0xa1
  7c:	02006703 	andeq	r6, r0, #786432	; 0xc0000
  80:	009f0304 	addseq	r0, pc, r4, lsl #6
  84:	9c030402 	cfstrsls	mvf0, [r3], {2}
  88:	01040200 	mrseq	r0, R12_usr
  8c:	6b066606 	blvs	1998ac <shift+0x1998ac>
  90:	0006022f 	andeq	r0, r6, pc, lsr #4
  94:	00400101 	subeq	r0, r0, r1, lsl #2
  98:	00020000 	andeq	r0, r2, r0
  9c:	00000021 	andeq	r0, r0, r1, lsr #32
  a0:	0efb0102 	cdpeq	1, 15, cr0, cr11, cr2, {0}
  a4:	0101000d 	tsteq	r1, sp
  a8:	00000101 	andeq	r0, r0, r1, lsl #2
  ac:	00000100 	andeq	r0, r0, r0, lsl #2
  b0:	61660001 	cmnvs	r6, r1
  b4:	612d7463 	teqvs	sp, r3, ror #8
  b8:	532e6d72 	teqpl	lr, #7296	; 0x1c80
  bc:	00000000 	andeq	r0, r0, r0
  c0:	02050000 	andeq	r0, r5, #0
  c4:	820000cc 	andhi	r0, r0, #204	; 0xcc
  c8:	2f010f03 	svccs	0x00010f03
  cc:	2f2f2f2f 	svccs	0x002f2f2f
  d0:	312f2f2f 	teqcc	pc, pc, lsr #30
  d4:	0002022f 	andeq	r0, r2, pc, lsr #4
  d8:	00db0101 	sbcseq	r0, fp, r1, lsl #2
  dc:	00020000 	andeq	r0, r2, r0
  e0:	0000001d 	andeq	r0, r0, sp, lsl r0
  e4:	0efb0102 	cdpeq	1, 15, cr0, cr11, cr2, {0}
  e8:	0101000d 	tsteq	r1, sp
  ec:	00000101 	andeq	r0, r0, r1, lsl #2
  f0:	00000100 	andeq	r0, r0, r0, lsl #2
  f4:	61750001 	cmnvs	r5, r1
  f8:	632e7472 	teqvs	lr, #1912602624	; 0x72000000
  fc:	00000000 	andeq	r0, r0, r0
 100:	02050000 	andeq	r0, r5, #0
 104:	820000f8 	andhi	r0, r0, #248	; 0xf8
 108:	6a011803 	bvs	4611c <shift+0x4611c>
 10c:	01040200 	mrseq	r0, R12_usr
 110:	bd062e06 	stclt	14, cr2, [r6, #-24]	; 0xffffffe8
 114:	6b2f6885 	blvs	bda330 <shift+0xbda330>
 118:	854dd76a 	strbhi	sp, [sp, #-1898]	; 0x76a
 11c:	686b2f68 	stmdavs	fp!, {r3, r5, r6, r8, r9, sl, fp, sp}^
 120:	02004b4d 	andeq	r4, r0, #78848	; 0x13400
 124:	66060104 	strvs	r0, [r6], -r4, lsl #2
 128:	02040200 	andeq	r0, r4, #0, 4
 12c:	04020066 	streq	r0, [r2], #-102	; 0x66
 130:	68066603 	stmdavs	r6, {r0, r1, r9, sl, sp, lr}
 134:	01040200 	mrseq	r0, R12_usr
 138:	67066606 	strvs	r6, [r6, -r6, lsl #12]
 13c:	040200d7 	streq	r0, [r2], #-215	; 0xd7
 140:	06660601 	strbteq	r0, [r6], -r1, lsl #12
 144:	0200d767 	andeq	sp, r0, #27000832	; 0x19c0000
 148:	66060104 	strvs	r0, [r6], -r4, lsl #2
 14c:	30bb6706 	adcscc	r6, fp, r6, lsl #14
 150:	4e836b2f 	vdivmi.f64	d6, d3, d31
 154:	04020067 	streq	r0, [r2], #-103	; 0x67
 158:	06660601 	strbteq	r0, [r6], -r1, lsl #12
 15c:	682f9f68 	stmdavs	pc!, {r3, r5, r6, r8, r9, sl, fp, ip, pc}	; <UNPREDICTABLE>
 160:	00846b2f 	addeq	r6, r4, pc, lsr #22
 164:	06010402 	streq	r0, [r1], -r2, lsl #8
 168:	4d670666 	stclmi	6, cr0, [r7, #-408]!	; 0xfffffe68
 16c:	01040200 	mrseq	r0, R12_usr
 170:	bd062e06 	stclt	14, cr2, [r6, #-24]	; 0xffffffe8
 174:	02004d84 	andeq	r4, r0, #132, 26	; 0x2100
 178:	2e060104 	adfcss	f0, f6, f4
 17c:	2f84bd06 	svccs	0x0084bd06
 180:	b92f8387 	stmdblt	pc!, {r0, r1, r2, r7, r8, r9, pc}	; <UNPREDICTABLE>
 184:	4b6b2f85 	blmi	1acbfa0 <shift+0x1acbfa0>
 188:	67a23367 	strvs	r3, [r2, r7, ror #6]!
 18c:	02674b68 	rsbeq	r4, r7, #104, 22	; 0x1a000
 190:	0267132c 	rsbeq	r1, r7, #44, 6	; 0xb0000000
 194:	2a021322 	bcs	84e24 <shift+0x84e24>
 198:	674bd814 	smlaldvs	sp, fp, r4, r8
 19c:	67132c02 	ldrvs	r2, [r3, -r2, lsl #24]
 1a0:	02132202 	andseq	r2, r3, #536870912	; 0x20000000
 1a4:	67d8142a 	ldrbvs	r1, [r8, sl, lsr #8]
 1a8:	4b674b67 	blmi	19d2f4c <shift+0x19d2f4c>
 1ac:	9f2fa14f 	svcls	0x002fa14f
 1b0:	832f69a3 	teqhi	pc, #2670592	; 0x28c000
 1b4:	01000a02 	tsteq	r0, r2, lsl #20
 1b8:	00013d01 	andeq	r3, r1, r1, lsl #26
 1bc:	1e000200 	cdpne	2, 0, cr0, cr0, cr0, {0}
 1c0:	02000000 	andeq	r0, r0, #0
 1c4:	0d0efb01 	vstreq	d15, [lr, #-4]
 1c8:	01010100 	mrseq	r0, (UNDEF: 17)
 1cc:	00000001 	andeq	r0, r0, r1
 1d0:	01000001 	tsteq	r0, r1
 1d4:	69727000 	ldmdbvs	r2!, {ip, sp, lr}^
 1d8:	632e746e 	teqvs	lr, #1845493760	; 0x6e000000
 1dc:	00000000 	andeq	r0, r0, r0
 1e0:	02050000 	andeq	r0, r5, #0
 1e4:	8200074c 	andhi	r0, r0, #76, 14	; 0x1300000
 1e8:	9f011003 	svcls	0x00011003
 1ec:	4bbc9f67 	blmi	fef27f90 <__bss_start+0x7cf27014>
 1f0:	674cd74f 	strbvs	sp, [ip, -pc, asr #14]
 1f4:	04020030 	streq	r0, [r2], #-48	; 0x30
 1f8:	02004b03 	andeq	r4, r0, #3072	; 0xc00
 1fc:	002d0304 	eoreq	r0, sp, r4, lsl #6
 200:	06010402 	streq	r0, [r1], -r2, lsl #8
 204:	6768062e 	strbvs	r0, [r8, -lr, lsr #12]!
 208:	30836768 	addcc	r6, r3, r8, ror #14
 20c:	04020083 	streq	r0, [r2], #-131	; 0x83
 210:	02002f02 	andeq	r2, r0, #2, 30
 214:	00670204 	rsbeq	r0, r7, r4, lsl #4
 218:	2c020402 	cfstrscs	mvf0, [r2], {2}
 21c:	01040200 	mrseq	r0, R12_usr
 220:	6b066606 	blvs	199a40 <shift+0x199a40>
 224:	02040200 	andeq	r0, r4, #0, 4
 228:	0402002f 	streq	r0, [r2], #-47	; 0x2f
 22c:	02009f02 	andeq	r9, r0, #2, 30
 230:	002c0204 	eoreq	r0, ip, r4, lsl #4
 234:	06010402 	streq	r0, [r1], -r2, lsl #8
 238:	00860666 	addeq	r0, r6, r6, ror #12
 23c:	2f020402 	svccs	0x00020402
 240:	02040200 	andeq	r0, r4, #0, 4
 244:	04020067 	streq	r0, [r2], #-103	; 0x67
 248:	02002c02 	andeq	r2, r0, #512	; 0x200
 24c:	66060104 	strvs	r0, [r6], -r4, lsl #2
 250:	6c2f6b06 	stcvs	11, cr6, [pc], #-24	; 240 <shift+0x240>
 254:	67304bd9 			; <UNDEFINED> instruction: 0x67304bd9
 258:	00d94b4b 	sbcseq	r4, r9, fp, asr #22
 25c:	06010402 	streq	r0, [r1], -r2, lsl #8
 260:	04020066 	streq	r0, [r2], #-102	; 0x66
 264:	67066602 	strvs	r6, [r6, -r2, lsl #12]
 268:	4c4b692f 	mcrrmi	9, 2, r6, fp, cr15
 26c:	674bbb2f 	strbvs	fp, [fp, -pc, lsr #22]
 270:	4b52b59f 	blmi	14ad8f4 <shift+0x14ad8f4>
 274:	01040200 	mrseq	r0, R12_usr
 278:	83066606 	movwhi	r6, #26118	; 0x6606
 27c:	6a842f67 	bvs	fe10c020 <__bss_start+0x7c10b0a4>
 280:	01040200 	mrseq	r0, R12_usr
 284:	2fa06bd7 	svccs	0x00a06bd7
 288:	2f672fa1 	svccs	0x00672fa1
 28c:	672f674b 	strvs	r6, [pc, -fp, asr #14]!
 290:	302f672f 	eorcc	r6, pc, pc, lsr #14
 294:	6a2c2f2f 	bvs	b0bf58 <shift+0xb0bf58>
 298:	03040200 	movweq	r0, #16896	; 0x4200
 29c:	0402002f 	streq	r0, [r2], #-47	; 0x2f
 2a0:	02008303 	andeq	r8, r0, #201326592	; 0xc000000
 2a4:	00640304 	rsbeq	r0, r4, r4, lsl #6
 2a8:	06010402 	streq	r0, [r1], -r2, lsl #8
 2ac:	0402002e 	streq	r0, [r2], #-46	; 0x2e
 2b0:	6a066602 	bvs	199ac0 <shift+0x199ac0>
 2b4:	02008367 	andeq	r8, r0, #-1677721599	; 0x9c000001
 2b8:	4a060104 	bmi	1806d0 <shift+0x1806d0>
 2bc:	02040200 	andeq	r0, r4, #0, 4
 2c0:	0402004a 	streq	r0, [r2], #-74	; 0x4a
 2c4:	02004a04 	andeq	r4, r0, #4, 20	; 0x4000
 2c8:	bb060404 	bllt	1812e0 <shift+0x1812e0>
 2cc:	ad086730 	stcge	7, cr6, [r8, #-192]	; 0xffffff40
 2d0:	ad086730 	stcge	7, cr6, [r8, #-192]	; 0xffffff40
 2d4:	ad086730 	stcge	7, cr6, [r8, #-192]	; 0xffffff40
 2d8:	ad086730 	stcge	7, cr6, [r8, #-192]	; 0xffffff40
 2dc:	4bbb6830 	blmi	feeda3a4 <__bss_start+0x7ced9428>
 2e0:	038332d7 	orreq	r3, r3, #1879048205	; 0x7000000d
 2e4:	02002e4d 	andeq	r2, r0, #1232	; 0x4d0
 2e8:	2e060104 	adfcss	f0, f6, f4
 2ec:	66360306 	ldrtvs	r0, [r6], -r6, lsl #6
 2f0:	6b2f8367 	blvs	be1094 <shift+0xbe1094>
 2f4:	0006024b 	andeq	r0, r6, fp, asr #4
 2f8:	00d70101 	sbcseq	r0, r7, r1, lsl #2
 2fc:	00020000 	andeq	r0, r2, r0
 300:	0000009e 	muleq	r0, lr, r0
 304:	0efb0102 	cdpeq	1, 15, cr0, cr11, cr2, {0}
 308:	0101000d 	tsteq	r1, sp
 30c:	00000101 	andeq	r0, r0, r1, lsl #2
 310:	00000100 	andeq	r0, r0, r0, lsl #2
 314:	6f682f01 	svcvs	0x00682f01
 318:	622f656d 	eorvs	r6, pc, #457179136	; 0x1b400000
 31c:	646c6975 	strbtvs	r6, [ip], #-2421	; 0x975
 320:	76616c73 			; <UNDEFINED> instruction: 0x76616c73
 324:	6f772f65 	svcvs	0x00772f65
 328:	70736b72 	rsbsvc	r6, r3, r2, ror fp
 32c:	2f656361 	svccs	0x00656361
 330:	616e6942 	cmnvs	lr, r2, asr #18
 334:	65527972 	ldrbvs	r7, [r2, #-2418]	; 0x972
 338:	7361656c 	cmnvc	r1, #108, 10	; 0x1b000000
 33c:	616c2f65 	cmnvs	ip, r5, ror #30
 340:	2f6c6562 	svccs	0x006c6562
 344:	7a746568 	bvc	1d198ec <shift+0x1d198ec>
 348:	2f72656e 	svccs	0x0072656e
 34c:	67726174 			; <UNDEFINED> instruction: 0x67726174
 350:	612f7465 	teqvs	pc, r5, ror #8
 354:	652d6d72 	strvs	r6, [sp, #-3442]!	; 0xd72
 358:	2f696261 	svccs	0x00696261
 35c:	70616e73 	rsbvc	r6, r1, r3, ror lr
 360:	746f6873 	strbtvc	r6, [pc], #-2163	; 368 <shift+0x368>
 364:	63672f73 	cmnvs	r7, #460	; 0x1cc
 368:	696c2d63 	stmdbvs	ip!, {r0, r1, r5, r6, r8, sl, fp, sp}^
 36c:	6f72616e 	svcvs	0x0072616e
 370:	392e342d 	stmdbcc	lr!, {r0, r2, r3, r5, sl, ip, sp}
 374:	3130322d 	teqcc	r0, sp, lsr #4
 378:	31302e35 	teqcc	r0, r5, lsr lr
 37c:	6c2f332d 	stcvs	3, cr3, [pc], #-180	; 2d0 <shift+0x2d0>
 380:	63676269 	cmnvs	r7, #-1879048186	; 0x90000006
 384:	6f632f63 	svcvs	0x00632f63
 388:	6769666e 	strbvs	r6, [r9, -lr, ror #12]!
 38c:	6d72612f 	ldfvse	f6, [r2, #-188]!	; 0xffffff44
 390:	696c0000 	stmdbvs	ip!, {}^	; <UNPREDICTABLE>
 394:	75663162 	strbvc	r3, [r6, #-354]!	; 0x162
 398:	2e73636e 	cdpcs	3, 7, cr6, cr3, cr14, {3}
 39c:	00010053 	andeq	r0, r1, r3, asr r0
 3a0:	05000000 	streq	r0, [r0, #-0]
 3a4:	000d5002 	andeq	r5, sp, r2
 3a8:	07cf0382 	strbeq	r0, [pc, r2, lsl #7]
 3ac:	2f2f3001 	svccs	0x002f3001
 3b0:	032f2f2f 	teqeq	pc, #47, 30	; 0xbc
 3b4:	032e7ce0 	teqeq	lr, #224, 24	; 0xe000
 3b8:	d00203a4 	andle	r0, r2, r4, lsr #7
 3bc:	312f0101 	teqcc	pc, r1, lsl #2
 3c0:	4c302f2f 	ldcmi	15, cr2, [r0], #-188	; 0xffffff44
 3c4:	1603322f 	strne	r3, [r3], -pc, lsr #4
 3c8:	2f2f2f66 	svccs	0x002f2f66
 3cc:	2f2f2f2f 	svccs	0x002f2f2f
 3d0:	01000202 	tsteq	r0, r2, lsl #4
 3d4:	0000b401 	andeq	fp, r0, r1, lsl #8
 3d8:	9e000200 	cdpls	2, 0, cr0, cr0, cr0, {0}
 3dc:	02000000 	andeq	r0, r0, #0
 3e0:	0d0efb01 	vstreq	d15, [lr, #-4]
 3e4:	01010100 	mrseq	r0, (UNDEF: 17)
 3e8:	00000001 	andeq	r0, r0, r1
 3ec:	01000001 	tsteq	r0, r1
 3f0:	6d6f682f 	stclvs	8, cr6, [pc, #-188]!	; 33c <shift+0x33c>
 3f4:	75622f65 	strbvc	r2, [r2, #-3941]!	; 0xf65
 3f8:	73646c69 	cmnvc	r4, #26880	; 0x6900
 3fc:	6576616c 	ldrbvs	r6, [r6, #-364]!	; 0x16c
 400:	726f772f 	rsbvc	r7, pc, #12320768	; 0xbc0000
 404:	6170736b 	cmnvs	r0, fp, ror #6
 408:	422f6563 	eormi	r6, pc, #415236096	; 0x18c00000
 40c:	72616e69 	rsbvc	r6, r1, #1680	; 0x690
 410:	6c655279 	sfmvs	f5, 2, [r5], #-484	; 0xfffffe1c
 414:	65736165 	ldrbvs	r6, [r3, #-357]!	; 0x165
 418:	62616c2f 	rsbvs	r6, r1, #12032	; 0x2f00
 41c:	682f6c65 	stmdavs	pc!, {r0, r2, r5, r6, sl, fp, sp, lr}	; <UNPREDICTABLE>
 420:	6e7a7465 	cdpvs	4, 7, cr7, cr10, cr5, {3}
 424:	742f7265 	strtvc	r7, [pc], #-613	; 42c <shift+0x42c>
 428:	65677261 	strbvs	r7, [r7, #-609]!	; 0x261
 42c:	72612f74 	rsbvc	r2, r1, #116, 30	; 0x1d0
 430:	61652d6d 	cmnvs	r5, sp, ror #26
 434:	732f6962 	teqvc	pc, #1605632	; 0x188000
 438:	7370616e 	cmnvc	r0, #-2147483621	; 0x8000001b
 43c:	73746f68 	cmnvc	r4, #104, 30	; 0x1a0
 440:	6363672f 	cmnvs	r3, #12320768	; 0xbc0000
 444:	6e696c2d 	cdpvs	12, 6, cr6, cr9, cr13, {1}
 448:	2d6f7261 	sfmcs	f7, 2, [pc, #-388]!	; 2cc <shift+0x2cc>
 44c:	2d392e34 	ldccs	14, cr2, [r9, #-208]!	; 0xffffff30
 450:	35313032 	ldrcc	r3, [r1, #-50]!	; 0x32
 454:	2d31302e 	ldccs	0, cr3, [r1, #-184]!	; 0xffffff48
 458:	696c2f33 	stmdbvs	ip!, {r0, r1, r4, r5, r8, r9, sl, fp, sp}^
 45c:	63636762 	cmnvs	r3, #25690112	; 0x1880000
 460:	6e6f632f 	cdpvs	3, 6, cr6, cr15, cr15, {1}
 464:	2f676966 	svccs	0x00676966
 468:	006d7261 	rsbeq	r7, sp, r1, ror #4
 46c:	62696c00 	rsbvs	r6, r9, #0, 24
 470:	6e756631 	mrcvs	6, 3, r6, cr5, cr1, {1}
 474:	532e7363 	teqpl	lr, #-1946157055	; 0x8c000001
 478:	00000100 	andeq	r0, r0, r0, lsl #2
 47c:	02050000 	andeq	r0, r5, #0
 480:	82000f5c 	andhi	r0, r0, #92, 30	; 0x170
 484:	010a9603 	tsteq	sl, r3, lsl #12
 488:	01000202 	tsteq	r0, r2, lsl #4
 48c:	Address 0x000000000000048c is out of bounds.


Disassembly of section .debug_info:

00000000 <.debug_info>:
   0:	00000045 	andeq	r0, r0, r5, asr #32
   4:	00000002 	andeq	r0, r0, r2
   8:	01040000 	mrseq	r0, (UNDEF: 4)
   c:	00000000 	andeq	r0, r0, r0
  10:	82000000 	andhi	r0, r0, #0
  14:	8200005c 	andhi	r0, r0, #92	; 0x5c
  18:	72617473 	rsbvc	r7, r1, #1929379840	; 0x73000000
  1c:	00532e74 	subseq	r2, r3, r4, ror lr
  20:	6d6f682f 	stclvs	8, cr6, [pc, #-188]!	; ffffff6c <__bss_start+0x7dffeff0>
  24:	31732f65 	cmncc	r3, r5, ror #30
  28:	30313135 	eorscc	r3, r1, r5, lsr r1
  2c:	652f3435 	strvs	r3, [pc, #-1077]!	; fffffbff <__bss_start+0x7dffec83>
  30:	6c2f3173 	stfvss	f3, [pc], #-460	; fffffe6c <__bss_start+0x7dffeef0>
  34:	32306261 	eorscc	r6, r0, #268435462	; 0x10000006
  38:	554e4700 	strbpl	r4, [lr, #-1792]	; 0x700
  3c:	20534120 	subscs	r4, r3, r0, lsr #2
  40:	34322e32 	ldrtcc	r2, [r2], #-3634	; 0xe32
  44:	0100302e 	tsteq	r0, lr, lsr #32
  48:	00008a80 	andeq	r8, r0, r0, lsl #21
  4c:	14000400 	strne	r0, [r0], #-1024	; 0x400
  50:	04000000 	streq	r0, [r0], #-0
  54:	00000001 	andeq	r0, r0, r1
  58:	008e0100 	addeq	r0, lr, r0, lsl #2
  5c:	00700000 	rsbseq	r0, r0, r0
  60:	005c0000 	subseq	r0, ip, r0
  64:	00708200 	rsbseq	r8, r0, r0, lsl #4
  68:	00470000 	subeq	r0, r7, r0
  6c:	89020000 	stmdbhi	r2, {}	; <UNPREDICTABLE>
  70:	01000000 	mrseq	r0, (UNDEF: 0)
  74:	0000730d 	andeq	r7, r0, sp, lsl #6
  78:	00005c00 	andeq	r5, r0, r0, lsl #24
  7c:	00007082 	andeq	r7, r0, r2, lsl #1
  80:	739c0100 	orrsvc	r0, ip, #0, 2
  84:	03000000 	movweq	r0, #0
  88:	0000006b 	andeq	r0, r0, fp, rrx
  8c:	00730d01 	rsbseq	r0, r3, r1, lsl #26
  90:	91020000 	mrsls	r0, (UNDEF: 2)
  94:	0095036c 	addseq	r0, r5, ip, ror #6
  98:	0d010000 	stceq	0, cr0, [r1, #-0]
  9c:	0000007a 	andeq	r0, r0, sl, ror r0
  a0:	04689102 	strbteq	r9, [r8], #-258	; 0x102
  a4:	0f01006e 	svceq	0x0001006e
  a8:	00000073 	andeq	r0, r0, r3, ror r0
  ac:	04749102 	ldrbteq	r9, [r4], #-258	; 0x102
  b0:	0f010066 	svceq	0x00010066
  b4:	00000073 	andeq	r0, r0, r3, ror r0
  b8:	00709102 	rsbseq	r9, r0, r2, lsl #2
  bc:	69050405 	stmdbvs	r5, {r0, r2, sl}
  c0:	0600746e 	streq	r7, [r0], -lr, ror #8
  c4:	00008004 	andeq	r8, r0, r4
  c8:	86040600 	strhi	r0, [r4], -r0, lsl #12
  cc:	07000000 	streq	r0, [r0, -r0]
  d0:	012e0801 	teqeq	lr, r1, lsl #16
  d4:	48000000 	stmdami	r0, {}	; <UNPREDICTABLE>
  d8:	02000000 	andeq	r0, r0, #0
  dc:	00008100 	andeq	r8, r0, r0, lsl #2
  e0:	96010400 	strls	r0, [r1], -r0, lsl #8
  e4:	cc000000 	stcgt	0, cr0, [r0], {-0}
  e8:	f8820000 			; <UNDEFINED> instruction: 0xf8820000
  ec:	66820000 	strvs	r0, [r2], r0
  f0:	2d746361 	ldclcs	3, cr6, [r4, #-388]!	; 0xfffffe7c
  f4:	2e6d7261 	cdpcs	2, 6, cr7, cr13, cr1, {3}
  f8:	682f0053 	stmdavs	pc!, {r0, r1, r4, r6}	; <UNPREDICTABLE>
  fc:	2f656d6f 	svccs	0x00656d6f
 100:	31353173 	teqcc	r5, r3, ror r1
 104:	34353031 	ldrtcc	r3, [r5], #-49	; 0x31
 108:	3173652f 	cmncc	r3, pc, lsr #10
 10c:	62616c2f 	rsbvs	r6, r1, #12032	; 0x2f00
 110:	47003230 	smladxmi	r0, r0, r2, r3
 114:	4120554e 	teqmi	r0, lr, asr #10
 118:	2e322053 	mrccs	0, 1, r2, cr2, cr3, {2}
 11c:	302e3432 	eorcc	r3, lr, r2, lsr r4
 120:	8b800100 	blhi	fe000528 <__bss_start+0x7bfff5ac>
 124:	04000002 	streq	r0, [r0], #-2
 128:	00009500 	andeq	r9, r0, r0, lsl #10
 12c:	00010400 	andeq	r0, r1, r0, lsl #8
 130:	01000000 	mrseq	r0, (UNDEF: 0)
 134:	00000133 	andeq	r0, r0, r3, lsr r1
 138:	000000e5 	andeq	r0, r0, r5, ror #1
 13c:	820000f8 	andhi	r0, r0, #248	; 0xf8
 140:	00000654 	andeq	r0, r0, r4, asr r6
 144:	000000da 	ldrdeq	r0, [r0], -sl
 148:	0000d002 	andeq	sp, r0, r2
 14c:	4b180100 	blmi	600554 <shift+0x600554>
 150:	f8000000 			; <UNDEFINED> instruction: 0xf8000000
 154:	54820000 	strpl	r0, [r2], #0
 158:	01000000 	mrseq	r0, (UNDEF: 0)
 15c:	00004b9c 	muleq	r0, ip, fp
 160:	00630300 	rsbeq	r0, r3, r0, lsl #6
 164:	00521a01 	subseq	r1, r2, r1, lsl #20
 168:	91020000 	mrsls	r0, (UNDEF: 2)
 16c:	04040074 	streq	r0, [r4], #-116	; 0x74
 170:	746e6905 	strbtvc	r6, [lr], #-2309	; 0x905
 174:	07040500 	streq	r0, [r4, -r0, lsl #10]
 178:	0000009a 	muleq	r0, sl, r0
 17c:	0000be02 	andeq	fp, r0, r2, lsl #28
 180:	4b2a0100 	blmi	a80588 <shift+0xa80588>
 184:	4c000000 	stcmi	0, cr0, [r0], {-0}
 188:	5c820001 	stcpl	0, cr0, [r2], {1}
 18c:	01000000 	mrseq	r0, (UNDEF: 0)
 190:	00007f9c 	muleq	r0, ip, pc	; <UNPREDICTABLE>
 194:	00630300 	rsbeq	r0, r3, r0, lsl #6
 198:	00522c01 	subseq	r2, r2, r1, lsl #24
 19c:	91020000 	mrsls	r0, (UNDEF: 2)
 1a0:	19020074 	stmdbne	r2, {r2, r4, r5, r6}
 1a4:	01000001 	tsteq	r0, r1
 1a8:	0000523d 	andeq	r5, r0, sp, lsr r2
 1ac:	0001a800 	andeq	sl, r1, r0, lsl #16
 1b0:	0000f882 	andeq	pc, r0, r2, lsl #17
 1b4:	b19c0100 	orrslt	r0, ip, r0, lsl #2
 1b8:	03000000 	movweq	r0, #0
 1bc:	3f010063 	svccc	0x00010063
 1c0:	0000004b 	andeq	r0, r0, fp, asr #32
 1c4:	03709102 	cmneq	r0, #-2147483648	; 0x80000000
 1c8:	4001006e 	andmi	r0, r1, lr, rrx
 1cc:	00000052 	andeq	r0, r0, r2, asr r0
 1d0:	00749102 	rsbseq	r9, r4, r2, lsl #2
 1d4:	00015102 	andeq	r5, r1, r2, lsl #2
 1d8:	f1530100 			; <UNDEFINED> instruction: 0xf1530100
 1dc:	a0000000 	andge	r0, r0, r0
 1e0:	70820002 	addvc	r0, r2, r2
 1e4:	01000000 	mrseq	r0, (UNDEF: 0)
 1e8:	0000f19c 	muleq	r0, ip, r1
 1ec:	74730600 	ldrbtvc	r0, [r3], #-1536	; 0x600
 1f0:	53010072 	movwpl	r0, #4210	; 0x1072
 1f4:	000000f1 	strdeq	r0, [r0], -r1
 1f8:	036c9102 	cmneq	ip, #-2147483648	; 0x80000000
 1fc:	55010070 	strpl	r0, [r1, #-112]	; 0x70
 200:	000000f1 	strdeq	r0, [r0], -r1
 204:	03749102 	cmneq	r4, #-2147483648	; 0x80000000
 208:	56010063 	strpl	r0, [r1], -r3, rrx
 20c:	000000fe 	strdeq	r0, [r0], -lr
 210:	00739102 	rsbseq	r9, r3, r2, lsl #2
 214:	00f70407 	rscseq	r0, r7, r7, lsl #8
 218:	01050000 	mrseq	r0, (UNDEF: 5)
 21c:	00012e08 	andeq	r2, r1, r8, lsl #28
 220:	08010500 	stmdaeq	r1, {r8, sl}
 224:	00000125 	andeq	r0, r0, r5, lsr #2
 228:	00015b08 	andeq	r5, r1, r8, lsl #22
 22c:	4b650100 	blmi	1940634 <shift+0x1940634>
 230:	10000000 	andne	r0, r0, r0
 234:	a4820003 	strge	r0, [r2], #3
 238:	01000000 	mrseq	r0, (UNDEF: 0)
 23c:	00012b9c 	muleq	r1, ip, fp
 240:	00630600 	rsbeq	r0, r3, r0, lsl #12
 244:	004b6501 	subeq	r6, fp, r1, lsl #10
 248:	91020000 	mrsls	r0, (UNDEF: 2)
 24c:	6c020074 	stcvs	0, cr0, [r2], {116}	; 0x74
 250:	01000001 	tsteq	r0, r1
 254:	00004b7e 	andeq	r4, r0, lr, ror fp
 258:	0003b400 	andeq	fp, r3, r0, lsl #8
 25c:	00004c82 	andeq	r4, r0, r2, lsl #25
 260:	519c0100 	orrspl	r0, ip, r0, lsl #2
 264:	06000001 	streq	r0, [r0], -r1
 268:	7e010073 	mcrvc	0, 0, r0, cr1, cr3, {3}
 26c:	00000151 	andeq	r0, r0, r1, asr r1
 270:	00749102 	rsbseq	r9, r4, r2, lsl #2
 274:	01570407 	cmpeq	r7, r7, lsl #8
 278:	f7090000 			; <UNDEFINED> instruction: 0xf7090000
 27c:	0a000000 	beq	284 <shift+0x284>
 280:	000000da 	ldrdeq	r0, [r0], -sl
 284:	04008801 	streq	r8, [r0], #-2049	; 0x801
 288:	00188200 	andseq	r8, r8, r0, lsl #4
 28c:	9c010000 	stcls	0, cr0, [r1], {-0}
 290:	00013a0b 	andeq	r3, r1, fp, lsl #20
 294:	188f0100 	stmne	pc, {r8}	; <UNPREDICTABLE>
 298:	c0820004 	addgt	r0, r2, r4
 29c:	01000002 	tsteq	r0, r2
 2a0:	0001c19c 	muleq	r1, ip, r1
 2a4:	00780600 	rsbseq	r0, r8, r0, lsl #12
 2a8:	004b8f01 	subeq	r8, fp, r1, lsl #30
 2ac:	91020000 	mrsls	r0, (UNDEF: 2)
 2b0:	00790664 	rsbseq	r0, r9, r4, ror #12
 2b4:	004b8f01 	subeq	r8, fp, r1, lsl #30
 2b8:	91020000 	mrsls	r0, (UNDEF: 2)
 2bc:	00690360 	rsbeq	r0, r9, r0, ror #6
 2c0:	004b9101 	subeq	r9, fp, r1, lsl #2
 2c4:	91020000 	mrsls	r0, (UNDEF: 2)
 2c8:	78780374 	ldmdavc	r8!, {r2, r4, r5, r6, r8, r9}^
 2cc:	c1920100 	orrsgt	r0, r2, r0, lsl #2
 2d0:	02000001 	andeq	r0, r0, #1
 2d4:	79037091 	stmdbvc	r3, {r0, r4, r7, ip, sp, lr}
 2d8:	92010079 	andls	r0, r1, #121	; 0x79
 2dc:	000001c1 	andeq	r0, r0, r1, asr #3
 2e0:	006c9102 	rsbeq	r9, ip, r2, lsl #2
 2e4:	0000f70c 	andeq	pc, r0, ip, lsl #14
 2e8:	0001d100 	andeq	sp, r1, r0, lsl #2
 2ec:	01d10d00 	bicseq	r0, r1, r0, lsl #26
 2f0:	00030000 	andeq	r0, r3, r0
 2f4:	76070405 	strvc	r0, [r7], -r5, lsl #8
 2f8:	02000001 	andeq	r0, r0, #1
 2fc:	00000144 	andeq	r0, r0, r4, asr #2
 300:	004bb201 	subeq	fp, fp, r1, lsl #4
 304:	06d80000 	ldrbeq	r0, [r8], r0
 308:	00408200 	subeq	r8, r0, r0, lsl #4
 30c:	9c010000 	stcls	0, cr0, [r1], {-0}
 310:	00000236 	andeq	r0, r0, r6, lsr r2
 314:	74756f06 	ldrbtvc	r6, [r5], #-3846	; 0xf06
 318:	f1b20100 			; <UNDEFINED> instruction: 0xf1b20100
 31c:	02000000 	andeq	r0, r0, #0
 320:	650e6491 	strvs	r6, [lr, #-1169]	; 0x491
 324:	01000001 	tsteq	r0, r1
 328:	000151b2 			; <UNDEFINED> instruction: 0x000151b2
 32c:	74910200 	ldrvc	r0, [r1], #512	; 0x200
 330:	00b8100f 	adcseq	r1, r8, pc
 334:	b4010000 	strlt	r0, [r1], #-0
 338:	0000004b 	andeq	r0, r0, fp, asr #32
 33c:	00000228 	andeq	r0, r0, r8, lsr #4
 340:	00023611 	andeq	r3, r2, r1, lsl r6
 344:	023c1100 	eorseq	r1, ip, #0, 2
 348:	12000000 	andne	r0, r0, #0
 34c:	000000b3 	strheq	r0, [r0], -r3
 350:	023cb601 	eorseq	fp, ip, #1048576	; 0x100000
 354:	54010000 	strpl	r0, [r1], #-0
 358:	f1040700 			; <UNDEFINED> instruction: 0xf1040700
 35c:	07000000 	streq	r0, [r0, -r0]
 360:	00004b04 	andeq	r4, r0, r4, lsl #22
 364:	00a71300 	adceq	r1, r7, r0, lsl #6
 368:	bc010000 	stclt	0, cr0, [r1], {-0}
 36c:	0000004b 	andeq	r0, r0, fp, asr #32
 370:	82000718 	andhi	r0, r0, #24, 14	; 0x600000
 374:	00000034 	andeq	r0, r0, r4, lsr r0
 378:	650e9c01 	strvs	r9, [lr, #-3073]	; 0xc01
 37c:	01000001 	tsteq	r0, r1
 380:	000151bc 			; <UNDEFINED> instruction: 0x000151bc
 384:	70910200 	addsvc	r0, r1, r0, lsl #4
 388:	00b8100f 	adcseq	r1, r8, pc
 38c:	be010000 	cdplt	0, 0, cr0, cr1, cr0, {0}
 390:	0000004b 	andeq	r0, r0, fp, asr #32
 394:	00000280 	andeq	r0, r0, r0, lsl #5
 398:	00023611 	andeq	r3, r2, r1, lsl r6
 39c:	023c1100 	eorseq	r1, ip, #0, 2
 3a0:	12000000 	andne	r0, r0, #0
 3a4:	000000b3 	strheq	r0, [r0], -r3
 3a8:	023cc001 	eorseq	ip, ip, #1
 3ac:	54010000 	strpl	r0, [r1], #-0
 3b0:	02a10000 	adceq	r0, r1, #0
 3b4:	00040000 	andeq	r0, r4, r0
 3b8:	000001c2 	andeq	r0, r0, r2, asr #3
 3bc:	00000104 	andeq	r0, r0, r4, lsl #2
 3c0:	aa010000 	bge	403c8 <shift+0x403c8>
 3c4:	e5000001 	str	r0, [r0, #-1]
 3c8:	4c000000 	stcmi	0, cr0, [r0], {-0}
 3cc:	04820007 	streq	r0, [r2], #7
 3d0:	b9000006 	stmdblt	r0, {r1, r2}
 3d4:	02000001 	andeq	r0, r0, #1
 3d8:	00000196 	muleq	r0, r6, r1
 3dc:	074c1001 	strbeq	r1, [ip, -r1]
 3e0:	005c8200 	subseq	r8, ip, r0, lsl #4
 3e4:	9c010000 	stcls	0, cr0, [r1], {-0}
 3e8:	00000055 	andeq	r0, r0, r5, asr r0
 3ec:	72747303 	rsbsvc	r7, r4, #201326592	; 0xc000000
 3f0:	55100100 	ldrpl	r0, [r0, #-256]	; 0x100
 3f4:	02000000 	andeq	r0, r0, #0
 3f8:	63037491 	movwvs	r7, #13457	; 0x3491
 3fc:	68100100 	ldmdavs	r0, {r8}
 400:	02000000 	andeq	r0, r0, #0
 404:	04007091 	streq	r7, [r0], #-145	; 0x91
 408:	00005b04 	andeq	r5, r0, r4, lsl #22
 40c:	61040400 	tstvs	r4, r0, lsl #8
 410:	05000000 	streq	r0, [r0, #-0]
 414:	012e0801 	teqeq	lr, r1, lsl #16
 418:	04060000 	streq	r0, [r6], #-0
 41c:	746e6905 	strbtvc	r6, [lr], #-2309	; 0x905
 420:	01c50700 	biceq	r0, r5, r0, lsl #14
 424:	1b010000 	blne	4042c <shift+0x4042c>
 428:	00000068 	andeq	r0, r0, r8, rrx
 42c:	820007a8 	andhi	r0, r0, #168, 14	; 0x2a00000
 430:	00000138 	andeq	r0, r0, r8, lsr r1
 434:	00fe9c01 	rscseq	r9, lr, r1, lsl #24
 438:	6f030000 	svcvs	0x00030000
 43c:	01007475 	tsteq	r0, r5, ror r4
 440:	0000551b 	andeq	r5, r0, fp, lsl r5
 444:	64910200 	ldrvs	r0, [r1], #512	; 0x200
 448:	00018708 	andeq	r8, r1, r8, lsl #14
 44c:	fe1b0100 	cdp2	1, 1, cr0, cr11, cr0, {0}
 450:	02000000 	andeq	r0, r0, #0
 454:	b2086091 	andlt	r6, r8, #145	; 0x91
 458:	01000001 	tsteq	r0, r1
 45c:	0000681b 	andeq	r6, r0, fp, lsl r8
 460:	5c910200 	lfmpl	f0, 4, [r1], {0}
 464:	64617003 	strbtvs	r7, [r1], #-3
 468:	681b0100 	ldmdavs	fp, {r8}
 46c:	02000000 	andeq	r0, r0, #0
 470:	70095891 	mulvc	r9, r1, r8
 474:	1d010063 	stcne	0, cr0, [r1, #-396]	; 0xfffffe74
 478:	00000068 	andeq	r0, r0, r8, rrx
 47c:	8e0a5401 	cdphi	4, 0, cr5, cr10, cr1, {0}
 480:	01000001 	tsteq	r0, r1
 484:	0000681d 	andeq	r6, r0, sp, lsl r8
 488:	0b570100 	bleq	15c0890 <shift+0x15c0890>
 48c:	820007d8 	andhi	r0, r0, #216, 14	; 0x3600000
 490:	00000058 	andeq	r0, r0, r8, asr r0
 494:	6e656c09 	cdpvs	12, 6, cr6, cr5, cr9, {0}
 498:	68200100 	stmdavs	r0!, {r8}
 49c:	01000000 	mrseq	r0, (UNDEF: 0)
 4a0:	74700955 	ldrbtvc	r0, [r0], #-2389	; 0x955
 4a4:	21010072 	tstcs	r1, r2, ror r0
 4a8:	000000fe 	strdeq	r0, [r0], -lr
 4ac:	00005601 	andeq	r5, r0, r1, lsl #12
 4b0:	01040404 	tsteq	r4, r4, lsl #8
 4b4:	610c0000 	mrsvs	r0, (UNDEF: 12)
 4b8:	07000000 	streq	r0, [r0, -r0]
 4bc:	000001b8 			; <UNDEFINED> instruction: 0x000001b8
 4c0:	00683f01 	rsbeq	r3, r8, r1, lsl #30
 4c4:	08e00000 	stmiaeq	r0!, {}^	; <UNPREDICTABLE>
 4c8:	01808200 	orreq	r8, r0, r0, lsl #4
 4cc:	9c010000 	stcls	0, cr0, [r1], {-0}
 4d0:	000001c8 	andeq	r0, r0, r8, asr #3
 4d4:	74756f03 	ldrbtvc	r6, [r5], #-3843	; 0xf03
 4d8:	553f0100 	ldrpl	r0, [pc, #-256]!	; 3e0 <shift+0x3e0>
 4dc:	02000000 	andeq	r0, r0, #0
 4e0:	69034c91 	stmdbvs	r3, {r0, r4, r7, sl, fp, lr}
 4e4:	683f0100 	ldmdavs	pc!, {r8}	; <UNPREDICTABLE>
 4e8:	02000000 	andeq	r0, r0, #0
 4ec:	62034891 	andvs	r4, r3, #9502720	; 0x910000
 4f0:	683f0100 	ldmdavs	pc!, {r8}	; <UNPREDICTABLE>
 4f4:	02000000 	andeq	r0, r0, #0
 4f8:	73034491 	movwvc	r4, #13457	; 0x3491
 4fc:	3f010067 	svccc	0x00010067
 500:	00000068 	andeq	r0, r0, r8, rrx
 504:	08409102 	stmdaeq	r0, {r1, r8, ip, pc}^
 508:	000001b2 			; <UNDEFINED> instruction: 0x000001b2
 50c:	00683f01 	rsbeq	r3, r8, r1, lsl #30
 510:	91020000 	mrsls	r0, (UNDEF: 2)
 514:	61700300 	cmnvs	r0, r0, lsl #6
 518:	3f010064 	svccc	0x00010064
 51c:	00000068 	andeq	r0, r0, r8, rrx
 520:	08049102 	stmdaeq	r4, {r1, r8, ip, pc}
 524:	0000017f 	andeq	r0, r0, pc, ror r1
 528:	00684001 	rsbeq	r4, r8, r1
 52c:	91020000 	mrsls	r0, (UNDEF: 2)
 530:	01a00a08 	lsleq	r0, r8, #20
 534:	42010000 	andmi	r0, r1, #0
 538:	000001c8 	andeq	r0, r0, r8, asr #3
 53c:	09549102 	ldmdbeq	r4, {r1, r8, ip, pc}^
 540:	43010073 	movwmi	r0, #4211	; 0x1073
 544:	0000005b 	andeq	r0, r0, fp, asr r0
 548:	74095401 	strvc	r5, [r9], #-1025	; 0x401
 54c:	68440100 	stmdavs	r4, {r8}^
 550:	01000000 	mrseq	r0, (UNDEF: 0)
 554:	656e0956 	strbvs	r0, [lr, #-2390]!	; 0x956
 558:	44010067 	strmi	r0, [r1], #-103	; 0x67
 55c:	00000068 	andeq	r0, r0, r8, rrx
 560:	70095801 	andvc	r5, r9, r1, lsl #16
 564:	44010063 	strmi	r0, [r1], #-99	; 0x63
 568:	00000068 	andeq	r0, r0, r8, rrx
 56c:	75095501 	strvc	r5, [r9, #-1281]	; 0x501
 570:	df450100 	svcle	0x00450100
 574:	01000001 	tsteq	r0, r1
 578:	610d0057 	qaddvs	r0, r7, sp
 57c:	d8000000 	stmdale	r0, {}	; <UNPREDICTABLE>
 580:	0e000001 	cdpeq	0, 0, cr0, cr0, cr1, {0}
 584:	000001d8 	ldrdeq	r0, [r0], -r8
 588:	0405000b 	streq	r0, [r5], #-11
 58c:	00017607 	andeq	r7, r1, r7, lsl #12
 590:	07040500 	streq	r0, [r4, -r0, lsl #10]
 594:	0000009a 	muleq	r0, sl, r0
 598:	0000b807 	andeq	fp, r0, r7, lsl #16
 59c:	686c0100 	stmdavs	ip!, {r8}^
 5a0:	60000000 	andvs	r0, r0, r0
 5a4:	dc82000a 	stcle	0, cr0, [r2], {10}
 5a8:	01000002 	tsteq	r0, r2
 5ac:	00027d9c 	muleq	r2, ip, sp
 5b0:	756f0300 	strbvc	r0, [pc, #-768]!	; 2b8 <shift+0x2b8>
 5b4:	6c010074 	stcvs	0, cr0, [r1], {116}	; 0x74
 5b8:	00000055 	andeq	r0, r0, r5, asr r0
 5bc:	08549102 	ldmdaeq	r4, {r1, r8, ip, pc}^
 5c0:	000000b3 	strheq	r0, [r0], -r3
 5c4:	027d6c01 	rsbseq	r6, sp, #256	; 0x100
 5c8:	91020000 	mrsls	r0, (UNDEF: 2)
 5cc:	01b20a50 			; <UNDEFINED> instruction: 0x01b20a50
 5d0:	6e010000 	cdpvs	0, 0, cr0, cr1, cr0, {0}
 5d4:	00000068 	andeq	r0, r0, r8, rrx
 5d8:	70095601 	andvc	r5, r9, r1, lsl #12
 5dc:	01006461 	tsteq	r0, r1, ror #8
 5e0:	0000686e 	andeq	r6, r0, lr, ror #16
 5e4:	09570100 	ldmdbeq	r7, {r8}^
 5e8:	01006370 	tsteq	r0, r0, ror r3
 5ec:	0000686f 	andeq	r6, r0, pc, ror #16
 5f0:	0a550100 	beq	15409f8 <shift+0x15409f8>
 5f4:	00000165 	andeq	r0, r0, r5, ror #2
 5f8:	005b7001 	subseq	r7, fp, r1
 5fc:	54010000 	strpl	r0, [r1], #-0
 600:	72637309 	rsbvc	r7, r3, #603979776	; 0x24000000
 604:	83710100 	cmnhi	r1, #0, 2
 608:	02000002 	andeq	r0, r0, #2
 60c:	6f0f5c91 	svcvs	0x000f5c91
 610:	01007475 	tsteq	r0, r5, ror r4
 614:	000ceca4 	andeq	lr, ip, r4, lsr #25
 618:	0b3c0b82 	bleq	f03428 <shift+0xf03428>
 61c:	00448200 	subeq	r8, r4, r0, lsl #4
 620:	73090000 	movwvc	r0, #36864	; 0x9000
 624:	5b880100 	blpl	fe200a2c <__bss_start+0x7c1ffab0>
 628:	01000000 	mrseq	r0, (UNDEF: 0)
 62c:	04000058 	streq	r0, [r0], #-88	; 0x58
 630:	00006804 	andeq	r6, r0, r4, lsl #16
 634:	00610d00 	rsbeq	r0, r1, r0, lsl #26
 638:	02930000 	addseq	r0, r3, #0
 63c:	d80e0000 	stmdale	lr, {}	; <UNPREDICTABLE>
 640:	01000001 	tsteq	r0, r1
 644:	01bf1000 			; <UNDEFINED> instruction: 0x01bf1000
 648:	b0010000 	andlt	r0, r1, r0
 64c:	82000d3c 	andhi	r0, r0, #60, 26	; 0xf00
 650:	00000014 	andeq	r0, r0, r4, lsl r0
 654:	53009c01 	movwpl	r9, #3073	; 0xc01
 658:	02000001 	andeq	r0, r0, #1
 65c:	0002ae00 	andeq	sl, r2, r0, lsl #28
 660:	fa010400 	blx	41668 <shift+0x41668>
 664:	50000002 	andpl	r0, r0, r2
 668:	5c82000d 	stcpl	0, cr0, [r2], {13}
 66c:	2f82000f 	svccs	0x0082000f
 670:	656d6f68 	strbvs	r6, [sp, #-3944]!	; 0xf68
 674:	6975622f 	ldmdbvs	r5!, {r0, r1, r2, r3, r5, r9, sp, lr}^
 678:	6c73646c 	cfldrdvs	mvd6, [r3], #-432	; 0xfffffe50
 67c:	2f657661 	svccs	0x00657661
 680:	6b726f77 	blvs	1c9c464 <shift+0x1c9c464>
 684:	63617073 	cmnvs	r1, #115	; 0x73
 688:	69422f65 	stmdbvs	r2, {r0, r2, r5, r6, r8, r9, sl, fp, sp}^
 68c:	7972616e 	ldmdbvc	r2!, {r1, r2, r3, r5, r6, r8, sp, lr}^
 690:	656c6552 	strbvs	r6, [ip, #-1362]!	; 0x552
 694:	2f657361 	svccs	0x00657361
 698:	6562616c 	strbvs	r6, [r2, #-364]!	; 0x16c
 69c:	65682f6c 	strbvs	r2, [r8, #-3948]!	; 0xf6c
 6a0:	656e7a74 	strbvs	r7, [lr, #-2676]!	; 0xa74
 6a4:	61742f72 	cmnvs	r4, r2, ror pc
 6a8:	74656772 	strbtvc	r6, [r5], #-1906	; 0x772
 6ac:	6d72612f 	ldfvse	f6, [r2, #-188]!	; 0xffffff44
 6b0:	6261652d 	rsbvs	r6, r1, #188743680	; 0xb400000
 6b4:	6e732f69 	cdpvs	15, 7, cr2, cr3, cr9, {3}
 6b8:	68737061 	ldmdavs	r3!, {r0, r5, r6, ip, sp, lr}^
 6bc:	2f73746f 	svccs	0x0073746f
 6c0:	2d636367 	stclcs	3, cr6, [r3, #-412]!	; 0xfffffe64
 6c4:	616e696c 	cmnvs	lr, ip, ror #18
 6c8:	342d6f72 	strtcc	r6, [sp], #-3954	; 0xf72
 6cc:	322d392e 	eorcc	r3, sp, #753664	; 0xb8000
 6d0:	2e353130 	mrccs	1, 1, r3, cr5, cr0, {1}
 6d4:	332d3130 	teqcc	sp, #48, 2
 6d8:	62696c2f 	rsbvs	r6, r9, #12032	; 0x2f00
 6dc:	2f636367 	svccs	0x00636367
 6e0:	666e6f63 	strbtvs	r6, [lr], -r3, ror #30
 6e4:	612f6769 	teqvs	pc, r9, ror #14
 6e8:	6c2f6d72 	stcvs	13, cr6, [pc], #-456	; 528 <shift+0x528>
 6ec:	66316269 	ldrtvs	r6, [r1], -r9, ror #4
 6f0:	73636e75 	cmnvc	r3, #1872	; 0x750
 6f4:	2f00532e 	svccs	0x0000532e
 6f8:	656d6f68 	strbvs	r6, [sp, #-3944]!	; 0xf68
 6fc:	6975622f 	ldmdbvs	r5!, {r0, r1, r2, r3, r5, r9, sp, lr}^
 700:	6c73646c 	cfldrdvs	mvd6, [r3], #-432	; 0xfffffe50
 704:	2f657661 	svccs	0x00657661
 708:	6b726f77 	blvs	1c9c4ec <shift+0x1c9c4ec>
 70c:	63617073 	cmnvs	r1, #115	; 0x73
 710:	69422f65 	stmdbvs	r2, {r0, r2, r5, r6, r8, r9, sl, fp, sp}^
 714:	7972616e 	ldmdbvc	r2!, {r1, r2, r3, r5, r6, r8, sp, lr}^
 718:	656c6552 	strbvs	r6, [ip, #-1362]!	; 0x552
 71c:	2f657361 	svccs	0x00657361
 720:	6562616c 	strbvs	r6, [r2, #-364]!	; 0x16c
 724:	65682f6c 	strbvs	r2, [r8, #-3948]!	; 0xf6c
 728:	656e7a74 	strbvs	r7, [lr, #-2676]!	; 0xa74
 72c:	61742f72 	cmnvs	r4, r2, ror pc
 730:	74656772 	strbtvc	r6, [r5], #-1906	; 0x772
 734:	6d72612f 	ldfvse	f6, [r2, #-188]!	; 0xffffff44
 738:	6261652d 	rsbvs	r6, r1, #188743680	; 0xb400000
 73c:	625f2f69 	subsvs	r2, pc, #420	; 0x1a4
 740:	646c6975 	strbtvs	r6, [ip], #-2421	; 0x975
 744:	6975622f 	ldmdbvs	r5!, {r0, r1, r2, r3, r5, r9, sp, lr}^
 748:	2f73646c 	svccs	0x0073646c
 74c:	5f363878 	svcpl	0x00363878
 750:	752d3436 	strvc	r3, [sp, #-1078]!	; 0x436
 754:	6f6e6b6e 	svcvs	0x006e6b6e
 758:	6c2d6e77 	stcvs	14, cr6, [sp], #-476	; 0xfffffe24
 75c:	78756e69 	ldmdavc	r5!, {r0, r3, r5, r6, r9, sl, fp, sp, lr}^
 760:	756e672d 	strbvc	r6, [lr, #-1837]!	; 0x72d
 764:	6d72612f 	ldfvse	f6, [r2, #-188]!	; 0xffffff44
 768:	6261652d 	rsbvs	r6, r1, #188743680	; 0xb400000
 76c:	63672f69 	cmnvs	r7, #420	; 0x1a4
 770:	696c2d63 	stmdbvs	ip!, {r0, r1, r5, r6, r8, sl, fp, sp}^
 774:	6f72616e 	svcvs	0x0072616e
 778:	392e342d 	stmdbcc	lr!, {r0, r2, r3, r5, sl, ip, sp}
 77c:	3130322d 	teqcc	r0, sp, lsr #4
 780:	31302e35 	teqcc	r0, r5, lsr lr
 784:	732d332d 	teqvc	sp, #-1275068416	; 0xb4000000
 788:	65676174 	strbvs	r6, [r7, #-372]!	; 0x174
 78c:	72612f32 	rsbvc	r2, r1, #50, 30	; 0xc8
 790:	61652d6d 	cmnvs	r5, sp, ror #26
 794:	6c2f6962 	stcvs	9, cr6, [pc], #-392	; 614 <shift+0x614>
 798:	63676269 	cmnvs	r7, #-1879048186	; 0x90000006
 79c:	4e470063 	cdpmi	0, 4, cr0, cr7, cr3, {3}
 7a0:	53412055 	movtpl	r2, #4181	; 0x1055
 7a4:	322e3220 	eorcc	r3, lr, #32, 4
 7a8:	00302e34 	eorseq	r2, r0, r4, lsr lr
 7ac:	01538001 	cmpeq	r3, r1
 7b0:	00020000 	andeq	r0, r2, r0
 7b4:	000002c2 	andeq	r0, r0, r2, asr #5
 7b8:	03d50104 	bicseq	r0, r5, #4, 2
 7bc:	0f5c0000 	svceq	0x005c0000
 7c0:	0f608200 	svceq	0x00608200
 7c4:	682f8200 	stmdavs	pc!, {r9, pc}	; <UNPREDICTABLE>
 7c8:	2f656d6f 	svccs	0x00656d6f
 7cc:	6c697562 	cfstr64vs	mvdx7, [r9], #-392	; 0xfffffe78
 7d0:	616c7364 	cmnvs	ip, r4, ror #6
 7d4:	772f6576 			; <UNDEFINED> instruction: 0x772f6576
 7d8:	736b726f 	cmnvc	fp, #-268435450	; 0xf0000006
 7dc:	65636170 	strbvs	r6, [r3, #-368]!	; 0x170
 7e0:	6e69422f 	cdpvs	2, 6, cr4, cr9, cr15, {1}
 7e4:	52797261 	rsbspl	r7, r9, #268435462	; 0x10000006
 7e8:	61656c65 	cmnvs	r5, r5, ror #24
 7ec:	6c2f6573 	cfstr32vs	mvfx6, [pc], #-460	; 628 <shift+0x628>
 7f0:	6c656261 	sfmvs	f6, 2, [r5], #-388	; 0xfffffe7c
 7f4:	7465682f 	strbtvc	r6, [r5], #-2095	; 0x82f
 7f8:	72656e7a 	rsbvc	r6, r5, #1952	; 0x7a0
 7fc:	7261742f 	rsbvc	r7, r1, #788529152	; 0x2f000000
 800:	2f746567 	svccs	0x00746567
 804:	2d6d7261 	sfmcs	f7, 2, [sp, #-388]!	; 0xfffffe7c
 808:	69626165 	stmdbvs	r2!, {r0, r2, r5, r6, r8, sp, lr}^
 80c:	616e732f 	cmnvs	lr, pc, lsr #6
 810:	6f687370 	svcvs	0x00687370
 814:	672f7374 			; <UNDEFINED> instruction: 0x672f7374
 818:	6c2d6363 	stcvs	3, cr6, [sp], #-396	; 0xfffffe74
 81c:	72616e69 	rsbvc	r6, r1, #1680	; 0x690
 820:	2e342d6f 	cdpcs	13, 3, cr2, cr4, cr15, {3}
 824:	30322d39 	eorscc	r2, r2, r9, lsr sp
 828:	302e3531 	eorcc	r3, lr, r1, lsr r5
 82c:	2f332d31 	svccs	0x00332d31
 830:	6762696c 	strbvs	r6, [r2, -ip, ror #18]!
 834:	632f6363 	teqvs	pc, #-1946157055	; 0x8c000001
 838:	69666e6f 	stmdbvs	r6!, {r0, r1, r2, r3, r5, r6, r9, sl, fp, sp, lr}^
 83c:	72612f67 	rsbvc	r2, r1, #412	; 0x19c
 840:	696c2f6d 	stmdbvs	ip!, {r0, r2, r3, r5, r6, r8, r9, sl, fp, sp}^
 844:	75663162 	strbvc	r3, [r6, #-354]!	; 0x162
 848:	2e73636e 	cdpcs	3, 7, cr6, cr3, cr14, {3}
 84c:	682f0053 	stmdavs	pc!, {r0, r1, r4, r6}	; <UNPREDICTABLE>
 850:	2f656d6f 	svccs	0x00656d6f
 854:	6c697562 	cfstr64vs	mvdx7, [r9], #-392	; 0xfffffe78
 858:	616c7364 	cmnvs	ip, r4, ror #6
 85c:	772f6576 			; <UNDEFINED> instruction: 0x772f6576
 860:	736b726f 	cmnvc	fp, #-268435450	; 0xf0000006
 864:	65636170 	strbvs	r6, [r3, #-368]!	; 0x170
 868:	6e69422f 	cdpvs	2, 6, cr4, cr9, cr15, {1}
 86c:	52797261 	rsbspl	r7, r9, #268435462	; 0x10000006
 870:	61656c65 	cmnvs	r5, r5, ror #24
 874:	6c2f6573 	cfstr32vs	mvfx6, [pc], #-460	; 6b0 <shift+0x6b0>
 878:	6c656261 	sfmvs	f6, 2, [r5], #-388	; 0xfffffe7c
 87c:	7465682f 	strbtvc	r6, [r5], #-2095	; 0x82f
 880:	72656e7a 	rsbvc	r6, r5, #1952	; 0x7a0
 884:	7261742f 	rsbvc	r7, r1, #788529152	; 0x2f000000
 888:	2f746567 	svccs	0x00746567
 88c:	2d6d7261 	sfmcs	f7, 2, [sp, #-388]!	; 0xfffffe7c
 890:	69626165 	stmdbvs	r2!, {r0, r2, r5, r6, r8, sp, lr}^
 894:	75625f2f 	strbvc	r5, [r2, #-3887]!	; 0xf2f
 898:	2f646c69 	svccs	0x00646c69
 89c:	6c697562 	cfstr64vs	mvdx7, [r9], #-392	; 0xfffffe78
 8a0:	782f7364 	stmdavc	pc!, {r2, r5, r6, r8, r9, ip, sp, lr}	; <UNPREDICTABLE>
 8a4:	365f3638 			; <UNDEFINED> instruction: 0x365f3638
 8a8:	6e752d34 	mrcvs	13, 3, r2, cr5, cr4, {1}
 8ac:	776f6e6b 	strbvc	r6, [pc, -fp, ror #28]!
 8b0:	696c2d6e 	stmdbvs	ip!, {r1, r2, r3, r5, r6, r8, sl, fp, sp}^
 8b4:	2d78756e 	cfldr64cs	mvdx7, [r8, #-440]!	; 0xfffffe48
 8b8:	2f756e67 	svccs	0x00756e67
 8bc:	2d6d7261 	sfmcs	f7, 2, [sp, #-388]!	; 0xfffffe7c
 8c0:	69626165 	stmdbvs	r2!, {r0, r2, r5, r6, r8, sp, lr}^
 8c4:	6363672f 	cmnvs	r3, #12320768	; 0xbc0000
 8c8:	6e696c2d 	cdpvs	12, 6, cr6, cr9, cr13, {1}
 8cc:	2d6f7261 	sfmcs	f7, 2, [pc, #-388]!	; 750 <shift+0x750>
 8d0:	2d392e34 	ldccs	14, cr2, [r9, #-208]!	; 0xffffff30
 8d4:	35313032 	ldrcc	r3, [r1, #-50]!	; 0x32
 8d8:	2d31302e 	ldccs	0, cr3, [r1, #-184]!	; 0xffffff48
 8dc:	74732d33 	ldrbtvc	r2, [r3], #-3379	; 0xd33
 8e0:	32656761 	rsbcc	r6, r5, #25427968	; 0x1840000
 8e4:	6d72612f 	ldfvse	f6, [r2, #-188]!	; 0xffffff44
 8e8:	6261652d 	rsbvs	r6, r1, #188743680	; 0xb400000
 8ec:	696c2f69 	stmdbvs	ip!, {r0, r3, r5, r6, r8, r9, sl, fp, sp}^
 8f0:	63636762 	cmnvs	r3, #25690112	; 0x1880000
 8f4:	554e4700 	strbpl	r4, [lr, #-1792]	; 0x700
 8f8:	20534120 	subscs	r4, r3, r0, lsr #2
 8fc:	34322e32 	ldrtcc	r2, [r2], #-3634	; 0xe32
 900:	0100302e 	tsteq	r0, lr, lsr #32
 904:	Address 0x0000000000000904 is out of bounds.


Disassembly of section .debug_abbrev:

00000000 <.debug_abbrev>:
   0:	10001101 	andne	r1, r0, r1, lsl #2
   4:	12011106 	andne	r1, r1, #-2147483647	; 0x80000001
   8:	1b080301 	blne	200c14 <shift+0x200c14>
   c:	13082508 	movwne	r2, #34056	; 0x8508
  10:	00000005 	andeq	r0, r0, r5
  14:	25011101 	strcs	r1, [r1, #-257]	; 0x101
  18:	030b130e 	movweq	r1, #45838	; 0xb30e
  1c:	110e1b0e 	tstne	lr, lr, lsl #22
  20:	10061201 	andne	r1, r6, r1, lsl #4
  24:	02000017 	andeq	r0, r0, #23
  28:	193f012e 	ldmdbne	pc!, {r1, r2, r3, r5, r8}	; <UNPREDICTABLE>
  2c:	0b3a0e03 	bleq	e83840 <shift+0xe83840>
  30:	19270b3b 	stmdbne	r7!, {r0, r1, r3, r4, r5, r8, r9, fp}
  34:	01111349 	tsteq	r1, r9, asr #6
  38:	18400612 	stmdane	r0, {r1, r4, r9, sl}^
  3c:	01194296 			; <UNDEFINED> instruction: 0x01194296
  40:	03000013 	movweq	r0, #19
  44:	0e030005 	cdpeq	0, 0, cr0, cr3, cr5, {0}
  48:	0b3b0b3a 	bleq	ec2d38 <shift+0xec2d38>
  4c:	18021349 	stmdane	r2, {r0, r3, r6, r8, r9, ip}
  50:	34040000 	strcc	r0, [r4], #-0
  54:	3a080300 	bcc	200c5c <shift+0x200c5c>
  58:	490b3b0b 	stmdbmi	fp, {r0, r1, r3, r8, r9, fp, ip, sp}
  5c:	00180213 	andseq	r0, r8, r3, lsl r2
  60:	00240500 	eoreq	r0, r4, r0, lsl #10
  64:	0b3e0b0b 	bleq	f82c98 <shift+0xf82c98>
  68:	00000803 	andeq	r0, r0, r3, lsl #16
  6c:	0b000f06 	bleq	3c8c <shift+0x3c8c>
  70:	0013490b 	andseq	r4, r3, fp, lsl #18
  74:	00240700 	eoreq	r0, r4, r0, lsl #14
  78:	0b3e0b0b 	bleq	f82cac <shift+0xf82cac>
  7c:	00000e03 	andeq	r0, r0, r3, lsl #28
  80:	00110100 	andseq	r0, r1, r0, lsl #2
  84:	01110610 	tsteq	r1, r0, lsl r6
  88:	08030112 	stmdaeq	r3, {r1, r4, r8}
  8c:	0825081b 	stmdaeq	r5!, {r0, r1, r3, r4, fp}
  90:	00000513 	andeq	r0, r0, r3, lsl r5
  94:	01110100 	tsteq	r1, r0, lsl #2
  98:	0b130e25 	bleq	4c3934 <shift+0x4c3934>
  9c:	0e1b0e03 	cdpeq	14, 1, cr0, cr11, cr3, {0}
  a0:	06120111 			; <UNDEFINED> instruction: 0x06120111
  a4:	00001710 	andeq	r1, r0, r0, lsl r7
  a8:	3f012e02 	svccc	0x00012e02
  ac:	3a0e0319 	bcc	380d18 <shift+0x380d18>
  b0:	270b3b0b 	strcs	r3, [fp, -fp, lsl #22]
  b4:	11134919 	tstne	r3, r9, lsl r9
  b8:	40061201 	andmi	r1, r6, r1, lsl #4
  bc:	19429618 	stmdbne	r2, {r3, r4, r9, sl, ip, pc}^
  c0:	00001301 	andeq	r1, r0, r1, lsl #6
  c4:	03003403 	movweq	r3, #1027	; 0x403
  c8:	3b0b3a08 	blcc	2ce8f0 <shift+0x2ce8f0>
  cc:	0213490b 	andseq	r4, r3, #180224	; 0x2c000
  d0:	04000018 	streq	r0, [r0], #-24
  d4:	0b0b0024 	bleq	2c016c <shift+0x2c016c>
  d8:	08030b3e 	stmdaeq	r3, {r1, r2, r3, r4, r5, r8, r9, fp}
  dc:	24050000 	strcs	r0, [r5], #-0
  e0:	3e0b0b00 	vmlacc.f64	d0, d11, d0
  e4:	000e030b 	andeq	r0, lr, fp, lsl #6
  e8:	00050600 	andeq	r0, r5, r0, lsl #12
  ec:	0b3a0803 	bleq	e82100 <shift+0xe82100>
  f0:	13490b3b 	movtne	r0, #39739	; 0x9b3b
  f4:	00001802 	andeq	r1, r0, r2, lsl #16
  f8:	0b000f07 	bleq	3d1c <shift+0x3d1c>
  fc:	0013490b 	andseq	r4, r3, fp, lsl #18
 100:	012e0800 	teqeq	lr, r0, lsl #16
 104:	0e03193f 	mcreq	9, 0, r1, cr3, cr15, {1}
 108:	0b3b0b3a 	bleq	ec2df8 <shift+0xec2df8>
 10c:	13491927 	movtne	r1, #39207	; 0x9927
 110:	06120111 			; <UNDEFINED> instruction: 0x06120111
 114:	42971840 	addsmi	r1, r7, #64, 16	; 0x400000
 118:	00130119 	andseq	r0, r3, r9, lsl r1
 11c:	00260900 	eoreq	r0, r6, r0, lsl #18
 120:	00001349 	andeq	r1, r0, r9, asr #6
 124:	3f002e0a 	svccc	0x00002e0a
 128:	3a0e0319 	bcc	380d94 <shift+0x380d94>
 12c:	270b3b0b 	strcs	r3, [fp, -fp, lsl #22]
 130:	12011119 	andne	r1, r1, #1073741830	; 0x40000006
 134:	96184006 	ldrls	r4, [r8], -r6
 138:	00001942 	andeq	r1, r0, r2, asr #18
 13c:	3f012e0b 	svccc	0x00012e0b
 140:	3a0e0319 	bcc	380dac <shift+0x380dac>
 144:	270b3b0b 	strcs	r3, [fp, -fp, lsl #22]
 148:	12011119 	andne	r1, r1, #1073741830	; 0x40000006
 14c:	96184006 	ldrls	r4, [r8], -r6
 150:	13011942 	movwne	r1, #6466	; 0x1942
 154:	010c0000 	mrseq	r0, (UNDEF: 12)
 158:	01134901 	tsteq	r3, r1, lsl #18
 15c:	0d000013 	stceq	0, cr0, [r0, #-76]	; 0xffffffb4
 160:	13490021 	movtne	r0, #36897	; 0x9021
 164:	00000b2f 	andeq	r0, r0, pc, lsr #22
 168:	0300050e 	movweq	r0, #1294	; 0x50e
 16c:	3b0b3a0e 	blcc	2ce9ac <shift+0x2ce9ac>
 170:	0213490b 	andseq	r4, r3, #180224	; 0x2c000
 174:	0f000018 	svceq	0x00000018
 178:	00000018 	andeq	r0, r0, r8, lsl r0
 17c:	3f012e10 	svccc	0x00012e10
 180:	3a0e0319 	bcc	380dec <shift+0x380dec>
 184:	270b3b0b 	strcs	r3, [fp, -fp, lsl #22]
 188:	3c134919 	ldccc	9, cr4, [r3], {25}
 18c:	00130119 	andseq	r0, r3, r9, lsl r1
 190:	00051100 	andeq	r1, r5, r0, lsl #2
 194:	00001349 	andeq	r1, r0, r9, asr #6
 198:	03003412 	movweq	r3, #1042	; 0x412
 19c:	3b0b3a0e 	blcc	2ce9dc <shift+0x2ce9dc>
 1a0:	0213490b 	andseq	r4, r3, #180224	; 0x2c000
 1a4:	13000018 	movwne	r0, #24
 1a8:	193f012e 	ldmdbne	pc!, {r1, r2, r3, r5, r8}	; <UNPREDICTABLE>
 1ac:	0b3a0e03 	bleq	e839c0 <shift+0xe839c0>
 1b0:	19270b3b 	stmdbne	r7!, {r0, r1, r3, r4, r5, r8, r9, fp}
 1b4:	01111349 	tsteq	r1, r9, asr #6
 1b8:	18400612 	stmdane	r0, {r1, r4, r9, sl}^
 1bc:	00194296 	mulseq	r9, r6, r2
 1c0:	11010000 	mrsne	r0, (UNDEF: 1)
 1c4:	130e2501 	movwne	r2, #58625	; 0xe501
 1c8:	1b0e030b 	blne	380dfc <shift+0x380dfc>
 1cc:	1201110e 	andne	r1, r1, #-2147483645	; 0x80000003
 1d0:	00171006 	andseq	r1, r7, r6
 1d4:	012e0200 	teqeq	lr, r0, lsl #4
 1d8:	0e03193f 	mcreq	9, 0, r1, cr3, cr15, {1}
 1dc:	0b3b0b3a 	bleq	ec2ecc <shift+0xec2ecc>
 1e0:	01111927 	tsteq	r1, r7, lsr #18
 1e4:	18400612 	stmdane	r0, {r1, r4, r9, sl}^
 1e8:	01194296 			; <UNDEFINED> instruction: 0x01194296
 1ec:	03000013 	movweq	r0, #19
 1f0:	08030005 	stmdaeq	r3, {r0, r2}
 1f4:	0b3b0b3a 	bleq	ec2ee4 <shift+0xec2ee4>
 1f8:	18021349 	stmdane	r2, {r0, r3, r6, r8, r9, ip}
 1fc:	0f040000 	svceq	0x00040000
 200:	490b0b00 	stmdbmi	fp, {r8, r9, fp}
 204:	05000013 	streq	r0, [r0, #-19]
 208:	0b0b0024 	bleq	2c02a0 <shift+0x2c02a0>
 20c:	0e030b3e 	vmoveq.16	d3[0], r0
 210:	24060000 	strcs	r0, [r6], #-0
 214:	3e0b0b00 	vmlacc.f64	d0, d11, d0
 218:	0008030b 	andeq	r0, r8, fp, lsl #6
 21c:	012e0700 	teqeq	lr, r0, lsl #14
 220:	0e03193f 	mcreq	9, 0, r1, cr3, cr15, {1}
 224:	0b3b0b3a 	bleq	ec2f14 <shift+0xec2f14>
 228:	13491927 	movtne	r1, #39207	; 0x9927
 22c:	06120111 			; <UNDEFINED> instruction: 0x06120111
 230:	42961840 	addsmi	r1, r6, #64, 16	; 0x400000
 234:	00130119 	andseq	r0, r3, r9, lsl r1
 238:	00050800 	andeq	r0, r5, r0, lsl #16
 23c:	0b3a0e03 	bleq	e83a50 <shift+0xe83a50>
 240:	13490b3b 	movtne	r0, #39739	; 0x9b3b
 244:	00001802 	andeq	r1, r0, r2, lsl #16
 248:	03003409 	movweq	r3, #1033	; 0x409
 24c:	3b0b3a08 	blcc	2cea74 <shift+0x2cea74>
 250:	0213490b 	andseq	r4, r3, #180224	; 0x2c000
 254:	0a000018 	beq	2bc <shift+0x2bc>
 258:	0e030034 	mcreq	0, 0, r0, cr3, cr4, {1}
 25c:	0b3b0b3a 	bleq	ec2f4c <shift+0xec2f4c>
 260:	18021349 	stmdane	r2, {r0, r3, r6, r8, r9, ip}
 264:	0b0b0000 	bleq	2c026c <shift+0x2c026c>
 268:	12011101 	andne	r1, r1, #1073741824	; 0x40000000
 26c:	0c000006 	stceq	0, cr0, [r0], {6}
 270:	13490026 	movtne	r0, #36902	; 0x9026
 274:	010d0000 	mrseq	r0, (UNDEF: 13)
 278:	01134901 	tsteq	r3, r1, lsl #18
 27c:	0e000013 	mcreq	0, 0, r0, cr0, cr3, {0}
 280:	13490021 	movtne	r0, #36897	; 0x9021
 284:	00000b2f 	andeq	r0, r0, pc, lsr #22
 288:	03000a0f 	movweq	r0, #2575	; 0xa0f
 28c:	3b0b3a08 	blcc	2ceab4 <shift+0x2ceab4>
 290:	0001110b 	andeq	r1, r1, fp, lsl #2
 294:	002e1000 	eoreq	r1, lr, r0
 298:	0e03193f 	mcreq	9, 0, r1, cr3, cr15, {1}
 29c:	0b3b0b3a 	bleq	ec2f8c <shift+0xec2f8c>
 2a0:	01111927 	tsteq	r1, r7, lsr #18
 2a4:	18400612 	stmdane	r0, {r1, r4, r9, sl}^
 2a8:	00194297 	mulseq	r9, r7, r2
 2ac:	11010000 	mrsne	r0, (UNDEF: 1)
 2b0:	11061000 	mrsne	r1, (UNDEF: 6)
 2b4:	03011201 	movweq	r1, #4609	; 0x1201
 2b8:	25081b08 	strcs	r1, [r8, #-2824]	; 0xb08
 2bc:	00051308 	andeq	r1, r5, r8, lsl #6
 2c0:	11010000 	mrsne	r0, (UNDEF: 1)
 2c4:	11061000 	mrsne	r1, (UNDEF: 6)
 2c8:	03011201 	movweq	r1, #4609	; 0x1201
 2cc:	25081b08 	strcs	r1, [r8, #-2824]	; 0xb08
 2d0:	00051308 	andeq	r1, r5, r8, lsl #6
	...

Disassembly of section .debug_aranges:

00000000 <.debug_aranges>:
   0:	0000001c 	andeq	r0, r0, ip, lsl r0
   4:	00000002 	andeq	r0, r0, r2
   8:	00040000 	andeq	r0, r4, r0
   c:	00000000 	andeq	r0, r0, r0
  10:	82000000 	andhi	r0, r0, #0
  14:	0000005c 	andeq	r0, r0, ip, asr r0
	...
  20:	0000001c 	andeq	r0, r0, ip, lsl r0
  24:	00490002 	subeq	r0, r9, r2
  28:	00040000 	andeq	r0, r4, r0
  2c:	00000000 	andeq	r0, r0, r0
  30:	8200005c 	andhi	r0, r0, #92	; 0x5c
  34:	00000070 	andeq	r0, r0, r0, ror r0
	...
  40:	0000001c 	andeq	r0, r0, ip, lsl r0
  44:	00d70002 	sbcseq	r0, r7, r2
  48:	00040000 	andeq	r0, r4, r0
  4c:	00000000 	andeq	r0, r0, r0
  50:	820000cc 	andhi	r0, r0, #204	; 0xcc
  54:	0000002c 	andeq	r0, r0, ip, lsr #32
	...
  60:	0000001c 	andeq	r0, r0, ip, lsl r0
  64:	01230002 	teqeq	r3, r2
  68:	00040000 	andeq	r0, r4, r0
  6c:	00000000 	andeq	r0, r0, r0
  70:	820000f8 	andhi	r0, r0, #248	; 0xf8
  74:	00000654 	andeq	r0, r0, r4, asr r6
	...
  80:	0000001c 	andeq	r0, r0, ip, lsl r0
  84:	03b20002 			; <UNDEFINED> instruction: 0x03b20002
  88:	00040000 	andeq	r0, r4, r0
  8c:	00000000 	andeq	r0, r0, r0
  90:	8200074c 	andhi	r0, r0, #76, 14	; 0x1300000
  94:	00000604 	andeq	r0, r0, r4, lsl #12
	...
  a0:	0000001c 	andeq	r0, r0, ip, lsl r0
  a4:	06570002 	ldrbeq	r0, [r7], -r2
  a8:	00040000 	andeq	r0, r4, r0
  ac:	00000000 	andeq	r0, r0, r0
  b0:	82000d50 	andhi	r0, r0, #80, 26	; 0x1400
  b4:	0000020c 	andeq	r0, r0, ip, lsl #4
	...
  c0:	0000001c 	andeq	r0, r0, ip, lsl r0
  c4:	07ae0002 	streq	r0, [lr, r2]!
  c8:	00040000 	andeq	r0, r4, r0
  cc:	00000000 	andeq	r0, r0, r0
  d0:	82000f5c 	andhi	r0, r0, #92, 30	; 0x170
  d4:	00000004 	andeq	r0, r0, r4
	...

Disassembly of section .debug_str:

00000000 <.debug_str>:
   0:	20554e47 	subscs	r4, r5, r7, asr #28
   4:	2e342043 	cdpcs	0, 3, cr2, cr4, cr3, {2}
   8:	20332e39 	eorscs	r2, r3, r9, lsr lr
   c:	35313032 	ldrcc	r3, [r1, #-50]!	; 0x32
  10:	33313130 	teqcc	r1, #48, 2
  14:	72702820 	rsbsvc	r2, r0, #32, 16	; 0x200000
  18:	6c657265 	sfmvs	f7, 2, [r5], #-404	; 0xfffffe6c
  1c:	65736165 	ldrbvs	r6, [r3, #-357]!	; 0x165
  20:	6d2d2029 	stcvs	0, cr2, [sp, #-164]!	; 0xffffff5c
  24:	206d7261 	rsbcs	r7, sp, r1, ror #4
  28:	70636d2d 	rsbvc	r6, r3, sp, lsr #26
  2c:	6f633d75 	svcvs	0x00633d75
  30:	78657472 	stmdavc	r5!, {r1, r4, r5, r6, sl, ip, sp, lr}^
  34:	2038612d 	eorscs	r6, r8, sp, lsr #2
  38:	70666d2d 	rsbvc	r6, r6, sp, lsr #26
  3c:	656e3d75 	strbvs	r3, [lr, #-3445]!	; 0xd75
  40:	2d206e6f 	stccs	14, cr6, [r0, #-444]!	; 0xfffffe44
  44:	6f6c666d 	svcvs	0x006c666d
  48:	612d7461 	teqvs	sp, r1, ror #8
  4c:	733d6962 	teqvc	sp, #1605632	; 0x188000
  50:	6674666f 	ldrbtvs	r6, [r4], -pc, ror #12
  54:	6d2d2070 	stcvs	0, cr2, [sp, #-448]!	; 0xfffffe40
  58:	3d696261 	sfmcc	f6, 2, [r9, #-388]!	; 0xfffffe7c
  5c:	63706161 	cmnvs	r0, #1073741848	; 0x40000018
  60:	696c2d73 	stmdbvs	ip!, {r0, r1, r4, r5, r6, r8, sl, fp, sp}^
  64:	2078756e 	rsbscs	r7, r8, lr, ror #10
  68:	6100672d 	tstvs	r0, sp, lsr #14
  6c:	00636772 	rsbeq	r6, r3, r2, ror r7
  70:	6d6f682f 	stclvs	8, cr6, [pc, #-188]!	; ffffffbc <__bss_start+0x7dfff040>
  74:	31732f65 	cmncc	r3, r5, ror #30
  78:	30313135 	eorscc	r3, r1, r5, lsr r1
  7c:	652f3435 	strvs	r3, [pc, #-1077]!	; fffffc4f <__bss_start+0x7dffecd3>
  80:	6c2f3173 	stfvss	f3, [pc], #-460	; fffffebc <__bss_start+0x7dffef40>
  84:	32306261 	eorscc	r6, r0, #268435462	; 0x10000006
  88:	69616d00 	stmdbvs	r1!, {r8, sl, fp, sp, lr}^
  8c:	6166006e 	cmnvs	r6, lr, rrx
  90:	632e7463 	teqvs	lr, #1660944384	; 0x63000000
  94:	67726100 	ldrbvs	r6, [r2, -r0, lsl #2]!
  98:	6e750076 	mrcvs	0, 3, r0, cr5, cr6, {3}
  9c:	6e676973 	mcrvs	9, 3, r6, cr7, cr3, {3}
  a0:	69206465 	stmdbvs	r0!, {r0, r2, r5, r6, sl, sp, lr}
  a4:	5500746e 	strpl	r7, [r0, #-1134]	; 0x46e
  a8:	5f545241 	svcpl	0x00545241
  ac:	6e697270 	mcrvs	2, 3, r7, cr9, cr0, {3}
  b0:	76006674 			; <UNDEFINED> instruction: 0x76006674
  b4:	00677261 	rsbeq	r7, r7, r1, ror #4
  b8:	6e697270 	mcrvs	2, 3, r7, cr9, cr0, {3}
  bc:	41550074 	cmpmi	r5, r4, ror r0
  c0:	675f5452 			; <UNDEFINED> instruction: 0x675f5452
  c4:	5f637465 	svcpl	0x00637465
  c8:	6c626f6e 	stclvs	15, cr6, [r2], #-440	; 0xfffffe48
  cc:	006b636f 	rsbeq	r6, fp, pc, ror #6
  d0:	54524155 	ldrbpl	r4, [r2], #-341	; 0x155
  d4:	7465675f 	strbtvc	r6, [r5], #-1887	; 0x75f
  d8:	41550063 	cmpmi	r5, r3, rrx
  dc:	635f5452 	cmpvs	pc, #1375731712	; 0x52000000
  e0:	7261656c 	rsbvc	r6, r1, #108, 10	; 0x1b000000
  e4:	6f682f00 	svcvs	0x00682f00
  e8:	642f656d 	strtvs	r6, [pc], #-1389	; f0 <shift+0xf0>
  ec:	6e696873 	mcrvs	8, 3, r6, cr9, cr3, {3}
  f0:	3130322f 	teqcc	r0, pc, lsr #4
  f4:	61652d36 	cmnvs	r5, r6, lsr sp
  f8:	38323030 	ldmdacc	r2!, {r4, r5, ip, sp}
  fc:	3173652d 	cmncc	r3, sp, lsr #10
 100:	62616c2f 	rsbvs	r6, r1, #12032	; 0x2f00
 104:	65622d73 	strbvs	r2, [r2, #-3443]!	; 0xd73
 108:	656c6761 	strbvs	r6, [ip, #-1889]!	; 0x761
 10c:	656e6f62 	strbvs	r6, [lr, #-3938]!	; 0xf62
 110:	62696c2f 	rsbvs	r6, r9, #12032	; 0x2f00
 114:	74726175 	ldrbtvc	r6, [r2], #-373	; 0x175
 118:	52415500 	subpl	r5, r1, #0, 10
 11c:	65675f54 	strbvs	r5, [r7, #-3924]!	; 0xf54
 120:	78656874 	stmdavc	r5!, {r2, r4, r5, r6, fp, sp, lr}^
 124:	736e7500 	cmnvc	lr, #0, 10
 128:	656e6769 	strbvs	r6, [lr, #-1897]!	; 0x769
 12c:	68632064 	stmdavs	r3!, {r2, r5, r6, sp}^
 130:	75007261 	strvc	r7, [r0, #-609]	; 0x261
 134:	2e747261 	cdpcs	2, 7, cr7, cr4, cr1, {3}
 138:	41550063 	cmpmi	r5, r3, rrx
 13c:	675f5452 			; <UNDEFINED> instruction: 0x675f5452
 140:	006f746f 	rsbeq	r7, pc, pc, ror #8
 144:	54524155 	ldrbpl	r4, [r2], #-341	; 0x155
 148:	7270735f 	rsbsvc	r7, r0, #2080374785	; 0x7c000001
 14c:	66746e69 	ldrbtvs	r6, [r4], -r9, ror #28
 150:	52415500 	subpl	r5, r1, #0, 10
 154:	65675f54 	strbvs	r5, [r7, #-3924]!	; 0xf54
 158:	55007374 	strpl	r7, [r0, #-884]	; 0x374
 15c:	5f545241 	svcpl	0x00545241
 160:	63747570 	cmnvs	r4, #112, 10	; 0x1c000000
 164:	726f6600 	rsbvc	r6, pc, #0, 12
 168:	0074616d 	rsbseq	r6, r4, sp, ror #2
 16c:	54524155 	ldrbpl	r4, [r2], #-341	; 0x155
 170:	7475705f 	ldrbtvc	r7, [r5], #-95	; 0x5f
 174:	69730073 	ldmdbvs	r3!, {r0, r1, r4, r5, r6}^
 178:	7974657a 	ldmdbvc	r4!, {r1, r3, r4, r5, r6, r8, sl, sp, lr}^
 17c:	6c006570 	cfstr32vs	mvfx6, [r0], {112}	; 0x70
 180:	61627465 	cmnvs	r2, r5, ror #8
 184:	73006573 	movwvc	r6, #1395	; 0x573
 188:	6e697274 	mcrvs	2, 3, r7, cr9, cr4, {3}
 18c:	61700067 	cmnvs	r0, r7, rrx
 190:	61686364 	cmnvs	r8, r4, ror #6
 194:	72700072 	rsbsvc	r0, r0, #114	; 0x72
 198:	63746e69 	cmnvs	r4, #1680	; 0x690
 19c:	00726168 	rsbseq	r6, r2, r8, ror #2
 1a0:	6e697270 	mcrvs	2, 3, r7, cr9, cr0, {3}
 1a4:	75625f74 	strbvc	r5, [r2, #-3956]!	; 0xf74
 1a8:	72700066 	rsbsvc	r0, r0, #102	; 0x66
 1ac:	2e746e69 	cdpcs	14, 7, cr6, cr4, cr9, {3}
 1b0:	69770063 	ldmdbvs	r7!, {r0, r1, r5, r6}^
 1b4:	00687464 	rsbeq	r7, r8, r4, ror #8
 1b8:	6e697270 	mcrvs	2, 3, r7, cr9, cr0, {3}
 1bc:	72006974 	andvc	r6, r0, #116, 18	; 0x1d0000
 1c0:	65736961 	ldrbvs	r6, [r3, #-2401]!	; 0x961
 1c4:	69727000 	ldmdbvs	r2!, {ip, sp, lr}^
 1c8:	0073746e 	rsbseq	r7, r3, lr, ror #8

Disassembly of section .debug_frame:

00000000 <.debug_frame>:
   0:	0000000c 	andeq	r0, r0, ip
   4:	ffffffff 			; <UNDEFINED> instruction: 0xffffffff
   8:	7c020001 	stcvc	0, cr0, [r2], {1}
   c:	000d0c0e 	andeq	r0, sp, lr, lsl #24
  10:	0000001c 	andeq	r0, r0, ip, lsl r0
  14:	00000000 	andeq	r0, r0, r0
  18:	8200005c 	andhi	r0, r0, #92	; 0x5c
  1c:	00000070 	andeq	r0, r0, r0, ror r0
  20:	8b080e42 	blhi	203930 <shift+0x203930>
  24:	42018e02 	andmi	r8, r1, #2, 28
  28:	72040b0c 	andvc	r0, r4, #12, 22	; 0x3000
  2c:	00080d0c 	andeq	r0, r8, ip, lsl #26
  30:	0000000c 	andeq	r0, r0, ip
  34:	ffffffff 			; <UNDEFINED> instruction: 0xffffffff
  38:	7c020001 	stcvc	0, cr0, [r2], {1}
  3c:	000d0c0e 	andeq	r0, sp, lr, lsl #24
  40:	0000001c 	andeq	r0, r0, ip, lsl r0
  44:	00000030 	andeq	r0, r0, r0, lsr r0
  48:	820000f8 	andhi	r0, r0, #248	; 0xf8
  4c:	00000054 	andeq	r0, r0, r4, asr r0
  50:	8b080e42 	blhi	203960 <shift+0x203960>
  54:	42018e02 	andmi	r8, r1, #2, 28
  58:	64040b0c 	strvs	r0, [r4], #-2828	; 0xb0c
  5c:	00080d0c 	andeq	r0, r8, ip, lsl #26
  60:	0000001c 	andeq	r0, r0, ip, lsl r0
  64:	00000030 	andeq	r0, r0, r0, lsr r0
  68:	8200014c 	andhi	r0, r0, #76, 2
  6c:	0000005c 	andeq	r0, r0, ip, asr r0
  70:	8b080e42 	blhi	203980 <shift+0x203980>
  74:	42018e02 	andmi	r8, r1, #2, 28
  78:	68040b0c 	stmdavs	r4, {r2, r3, r8, r9, fp}
  7c:	00080d0c 	andeq	r0, r8, ip, lsl #26
  80:	0000001c 	andeq	r0, r0, ip, lsl r0
  84:	00000030 	andeq	r0, r0, r0, lsr r0
  88:	820001a8 	andhi	r0, r0, #168, 2	; 0x2a
  8c:	000000f8 	strdeq	r0, [r0], -r8
  90:	8b080e42 	blhi	2039a0 <shift+0x2039a0>
  94:	42018e02 	andmi	r8, r1, #2, 28
  98:	02040b0c 	andeq	r0, r4, #12, 22	; 0x3000
  9c:	080d0c76 	stmdaeq	sp, {r1, r2, r4, r5, r6, sl, fp}
  a0:	0000001c 	andeq	r0, r0, ip, lsl r0
  a4:	00000030 	andeq	r0, r0, r0, lsr r0
  a8:	820002a0 	andhi	r0, r0, #160, 4
  ac:	00000070 	andeq	r0, r0, r0, ror r0
  b0:	8b080e42 	blhi	2039c0 <shift+0x2039c0>
  b4:	42018e02 	andmi	r8, r1, #2, 28
  b8:	72040b0c 	andvc	r0, r4, #12, 22	; 0x3000
  bc:	00080d0c 	andeq	r0, r8, ip, lsl #26
  c0:	0000001c 	andeq	r0, r0, ip, lsl r0
  c4:	00000030 	andeq	r0, r0, r0, lsr r0
  c8:	82000310 	andhi	r0, r0, #16, 6	; 0x40000000
  cc:	000000a4 	andeq	r0, r0, r4, lsr #1
  d0:	8b040e42 	blhi	1039e0 <shift+0x1039e0>
  d4:	0b0d4201 	bleq	3508e0 <shift+0x3508e0>
  d8:	0d0d4a02 	vstreq	s8, [sp, #-8]
  dc:	000ecb42 	andeq	ip, lr, r2, asr #22
  e0:	0000001c 	andeq	r0, r0, ip, lsl r0
  e4:	00000030 	andeq	r0, r0, r0, lsr r0
  e8:	820003b4 	andhi	r0, r0, #180, 6	; 0xd0000002
  ec:	0000004c 	andeq	r0, r0, ip, asr #32
  f0:	8b080e42 	blhi	203a00 <shift+0x203a00>
  f4:	42018e02 	andmi	r8, r1, #2, 28
  f8:	60040b0c 	andvs	r0, r4, ip, lsl #22
  fc:	00080d0c 	andeq	r0, r8, ip, lsl #26
 100:	00000018 	andeq	r0, r0, r8, lsl r0
 104:	00000030 	andeq	r0, r0, r0, lsr r0
 108:	82000400 	andhi	r0, r0, #0, 8
 10c:	00000018 	andeq	r0, r0, r8, lsl r0
 110:	8b080e42 	blhi	203a20 <shift+0x203a20>
 114:	42018e02 	andmi	r8, r1, #2, 28
 118:	00040b0c 	andeq	r0, r4, ip, lsl #22
 11c:	00000020 	andeq	r0, r0, r0, lsr #32
 120:	00000030 	andeq	r0, r0, r0, lsr r0
 124:	82000418 	andhi	r0, r0, #24, 8	; 0x18000000
 128:	000002c0 	andeq	r0, r0, r0, asr #5
 12c:	8b080e42 	blhi	203a3c <shift+0x203a3c>
 130:	42018e02 	andmi	r8, r1, #2, 28
 134:	03040b0c 	movweq	r0, #19212	; 0x4b0c
 138:	0d0c015a 	stfeqs	f0, [ip, #-360]	; 0xfffffe98
 13c:	00000008 	andeq	r0, r0, r8
 140:	00000034 	andeq	r0, r0, r4, lsr r0
 144:	00000030 	andeq	r0, r0, r0, lsr r0
 148:	820006d8 	andhi	r0, r0, #216, 12	; 0xd800000
 14c:	00000040 	andeq	r0, r0, r0, asr #32
 150:	810c0e42 	tsthi	ip, r2, asr #28
 154:	83028203 	movwhi	r8, #8707	; 0x2203
 158:	180e4201 	stmdane	lr, {r0, r9, lr}
 15c:	058b0684 	streq	r0, [fp, #1668]	; 0x684
 160:	0c42048e 	cfstrdeq	mvd0, [r2], {142}	; 0x8e
 164:	0c54100b 	mrrceq	0, 0, r1, r4, cr11
 168:	ce42180d 	cdpgt	8, 4, cr1, cr2, cr13, {0}
 16c:	0c0ec4cb 	cfstrseq	mvf12, [lr], {203}	; 0xcb
 170:	c1c2c342 	bicgt	ip, r2, r2, asr #6
 174:	0000000e 	andeq	r0, r0, lr
 178:	00000038 	andeq	r0, r0, r8, lsr r0
 17c:	00000030 	andeq	r0, r0, r0, lsr r0
 180:	82000718 	andhi	r0, r0, #24, 14	; 0x600000
 184:	00000034 	andeq	r0, r0, r4, lsr r0
 188:	80100e42 	andshi	r0, r0, r2, asr #28
 18c:	82038104 	andhi	r8, r3, #4, 2
 190:	42018302 	andmi	r8, r1, #134217728	; 0x8000000
 194:	0884200e 	stmeq	r4, {r1, r2, r3, sp}
 198:	068b0785 	streq	r0, [fp], r5, lsl #15
 19c:	0c42058e 	cfstr64eq	mvdx0, [r2], {142}	; 0x8e
 1a0:	0c4e140b 	cfstrdeq	mvd1, [lr], {11}
 1a4:	ce42200d 	cdpgt	0, 4, cr2, cr2, cr13, {0}
 1a8:	0ec4c5cb 	cdpeq	5, 12, cr12, cr4, cr11, {6}
 1ac:	c2c34210 	sbcgt	r4, r3, #16, 4
 1b0:	000ec0c1 	andeq	ip, lr, r1, asr #1
 1b4:	0000000c 	andeq	r0, r0, ip
 1b8:	ffffffff 			; <UNDEFINED> instruction: 0xffffffff
 1bc:	7c020001 	stcvc	0, cr0, [r2], {1}
 1c0:	000d0c0e 	andeq	r0, sp, lr, lsl #24
 1c4:	0000001c 	andeq	r0, r0, ip, lsl r0
 1c8:	000001b4 			; <UNDEFINED> instruction: 0x000001b4
 1cc:	8200074c 	andhi	r0, r0, #76, 14	; 0x1300000
 1d0:	0000005c 	andeq	r0, r0, ip, asr r0
 1d4:	8b080e42 	blhi	203ae4 <shift+0x203ae4>
 1d8:	42018e02 	andmi	r8, r1, #2, 28
 1dc:	68040b0c 	stmdavs	r4, {r2, r3, r8, r9, fp}
 1e0:	00080d0c 	andeq	r0, r8, ip, lsl #26
 1e4:	00000024 	andeq	r0, r0, r4, lsr #32
 1e8:	000001b4 			; <UNDEFINED> instruction: 0x000001b4
 1ec:	820007a8 	andhi	r0, r0, #168, 14	; 0x2a00000
 1f0:	00000138 	andeq	r0, r0, r8, lsr r1
 1f4:	84180e42 	ldrhi	r0, [r8], #-3650	; 0xe42
 1f8:	86058506 	strhi	r8, [r5], -r6, lsl #10
 1fc:	8b038704 	blhi	e1e14 <shift+0xe1e14>
 200:	42018e02 	andmi	r8, r1, #2, 28
 204:	02040b0c 	andeq	r0, r4, #12, 22	; 0x3000
 208:	180d0c96 	stmdane	sp, {r1, r2, r4, r7, sl, fp}
 20c:	00000028 	andeq	r0, r0, r8, lsr #32
 210:	000001b4 			; <UNDEFINED> instruction: 0x000001b4
 214:	820008e0 	andhi	r0, r0, #224, 16	; 0xe00000
 218:	00000180 	andeq	r0, r0, r0, lsl #3
 21c:	841c0e42 	ldrhi	r0, [ip], #-3650	; 0xe42
 220:	86068507 	strhi	r8, [r6], -r7, lsl #10
 224:	88048705 	stmdahi	r4, {r0, r2, r8, r9, sl, pc}
 228:	8e028b03 	vmlahi.f64	d8, d2, d3
 22c:	0b0c4201 	bleq	310a38 <shift+0x310a38>
 230:	0cba0204 	lfmeq	f0, 4, [sl], #16
 234:	00001c0d 	andeq	r1, r0, sp, lsl #24
 238:	00000028 	andeq	r0, r0, r8, lsr #32
 23c:	000001b4 			; <UNDEFINED> instruction: 0x000001b4
 240:	82000a60 	andhi	r0, r0, #96, 20	; 0x60000
 244:	000002dc 	ldrdeq	r0, [r0], -ip
 248:	841c0e42 	ldrhi	r0, [ip], #-3650	; 0xe42
 24c:	86068507 	strhi	r8, [r6], -r7, lsl #10
 250:	88048705 	stmdahi	r4, {r0, r2, r8, r9, sl, pc}
 254:	8e028b03 	vmlahi.f64	d8, d2, d3
 258:	0b0c4201 	bleq	310a64 <shift+0x310a64>
 25c:	01680304 	cmneq	r8, r4, lsl #6
 260:	001c0d0c 	andseq	r0, ip, ip, lsl #26
 264:	0000001c 	andeq	r0, r0, ip, lsl r0
 268:	000001b4 			; <UNDEFINED> instruction: 0x000001b4
 26c:	82000d3c 	andhi	r0, r0, #60, 26	; 0xf00
 270:	00000014 	andeq	r0, r0, r4, lsl r0
 274:	8b040e42 	blhi	103b84 <shift+0x103b84>
 278:	0b0d4201 	bleq	350a84 <shift+0x350a84>
 27c:	420d0d42 	andmi	r0, sp, #4224	; 0x1080
 280:	00000ecb 	andeq	r0, r0, fp, asr #29
 284:	0000000c 	andeq	r0, r0, ip
 288:	ffffffff 			; <UNDEFINED> instruction: 0xffffffff
 28c:	7c010001 	stcvc	0, cr0, [r1], {1}
 290:	000d0c0e 	andeq	r0, sp, lr, lsl #24
 294:	0000000c 	andeq	r0, r0, ip
 298:	00000284 	andeq	r0, r0, r4, lsl #5
 29c:	82000d50 	andhi	r0, r0, #80, 26	; 0x1400
 2a0:	000001ec 	andeq	r0, r0, ip, ror #3
